
build/bootstrap.bin:     file format binary


Disassembly of section .data:

00000000 <.data>:
       0:	fa                   	cli
       1:	bc ff cd 00 00       	mov    esp,0xcdff
       6:	68 a0 8f 0b 00       	push   0xb8fa0
       b:	68 00 80 0b 00       	push   0xb8000
      10:	e8 eb 0d 00 00       	call   0xe00
      15:	83 c4 08             	add    esp,0x8
      18:	0f 01 15 6c 80 00 00 	lgdtd  ds:0x806c
      1f:	66 b8 10 00          	mov    ax,0x10
      23:	8e d8                	mov    ds,eax
      25:	8e c0                	mov    es,eax
      27:	8e e0                	mov    fs,eax
      29:	8e e8                	mov    gs,eax
      2b:	8e d0                	mov    ss,eax
      2d:	ea 72 80 00 00 08 00 	jmp    0x8:0x8072
	...
      3c:	ff                   	(bad)
      3d:	ff 00                	inc    DWORD PTR [eax]
      3f:	00 00                	add    BYTE PTR [eax],al
      41:	9a cf 00 ff ff 00 00 	call   0x0:0xffff00cf
      48:	00 92 cf 00 ff ff    	add    BYTE PTR [edx-0xff31],dl
      4e:	00 00                	add    BYTE PTR [eax],al
      50:	00 9a 0f 00 ff ff    	add    BYTE PTR [edx-0xfff1],bl
      56:	00 00                	add    BYTE PTR [eax],al
      58:	00 92 0f 00 00 00    	add    BYTE PTR [edx+0xf],dl
      5e:	00 00                	add    BYTE PTR [eax],al
      60:	00 9a 20 00 00 00    	add    BYTE PTR [edx+0x20],bl
      66:	00 00                	add    BYTE PTR [eax],al
      68:	00 92 00 00 37 00    	add    BYTE PTR [edx+0x370000],dl
      6e:	34 80                	xor    al,0x80
      70:	00 00                	add    BYTE PTR [eax],al
      72:	68 20 bc 00 00       	push   0xbc20
      77:	e8 97 09 00 00       	call   0xa13
      7c:	83 c4 04             	add    esp,0x4
      7f:	68 e8 03 00 00       	push   0x3e8
      84:	e8 9c 27 00 00       	call   0x2825
      89:	83 c4 04             	add    esp,0x4
      8c:	e8 48 0f 00 00       	call   0xfd9
      91:	68 5b bc 00 00       	push   0xbc5b
      96:	e8 ec 09 00 00       	call   0xa87
      9b:	83 c4 04             	add    esp,0x4
      9e:	e8 5a 1f 00 00       	call   0x1ffd
      a3:	68 7d bc 00 00       	push   0xbc7d
      a8:	e8 66 09 00 00       	call   0xa13
      ad:	83 c4 04             	add    esp,0x4
      b0:	68 e8 03 00 00       	push   0x3e8
      b5:	e8 6b 27 00 00       	call   0x2825
      ba:	83 c4 04             	add    esp,0x4
      bd:	e8 17 0f 00 00       	call   0xfd9
      c2:	68 a1 bc 00 00       	push   0xbca1
      c7:	e8 bb 09 00 00       	call   0xa87
      cc:	83 c4 04             	add    esp,0x4
      cf:	e8 62 11 00 00       	call   0x1236
      d4:	68 c6 bc 00 00       	push   0xbcc6
      d9:	e8 35 09 00 00       	call   0xa13
      de:	83 c4 04             	add    esp,0x4
      e1:	68 e8 03 00 00       	push   0x3e8
      e6:	e8 3a 27 00 00       	call   0x2825
      eb:	83 c4 04             	add    esp,0x4
      ee:	e8 e6 0e 00 00       	call   0xfd9
      f3:	68 ed bc 00 00       	push   0xbced
      f8:	e8 8a 09 00 00       	call   0xa87
      fd:	83 c4 04             	add    esp,0x4
     100:	e8 bf 1b 00 00       	call   0x1cc4
     105:	a3 ff cd 00 00       	mov    ds:0xcdff,eax
     10a:	68 12 bd 00 00       	push   0xbd12
     10f:	e8 ff 08 00 00       	call   0xa13
     114:	83 c4 04             	add    esp,0x4
     117:	68 e8 03 00 00       	push   0x3e8
     11c:	e8 04 27 00 00       	call   0x2825
     121:	83 c4 04             	add    esp,0x4
     124:	e8 b0 0e 00 00       	call   0xfd9
     129:	68 39 bd 00 00       	push   0xbd39
     12e:	e8 54 09 00 00       	call   0xa87
     133:	83 c4 04             	add    esp,0x4
     136:	a1 ff cd 00 00       	mov    eax,ds:0xcdff
     13b:	50                   	push   eax
     13c:	e8 22 06 00 00       	call   0x763
     141:	83 c4 04             	add    esp,0x4
     144:	68 e8 03 00 00       	push   0x3e8
     149:	e8 d7 26 00 00       	call   0x2825
     14e:	83 c4 04             	add    esp,0x4
     151:	68 51 bd 00 00       	push   0xbd51
     156:	e8 b8 08 00 00       	call   0xa13
     15b:	83 c4 04             	add    esp,0x4
     15e:	e8 76 0e 00 00       	call   0xfd9
     163:	68 6b bd 00 00       	push   0xbd6b
     168:	e8 1a 09 00 00       	call   0xa87
     16d:	83 c4 04             	add    esp,0x4
     170:	68 f4 01 00 00       	push   0x1f4
     175:	e8 ab 26 00 00       	call   0x2825
     17a:	83 c4 04             	add    esp,0x4
     17d:	68 99 bd 00 00       	push   0xbd99
     182:	e8 00 09 00 00       	call   0xa87
     187:	83 c4 04             	add    esp,0x4
     18a:	68 f4 01 00 00       	push   0x1f4
     18f:	e8 91 26 00 00       	call   0x2825
     194:	83 c4 04             	add    esp,0x4
     197:	68 d5 bd 00 00       	push   0xbdd5
     19c:	e8 e6 08 00 00       	call   0xa87
     1a1:	83 c4 04             	add    esp,0x4
     1a4:	68 f4 01 00 00       	push   0x1f4
     1a9:	e8 77 26 00 00       	call   0x2825
     1ae:	83 c4 04             	add    esp,0x4
     1b1:	68 e1 bd 00 00       	push   0xbde1
     1b6:	e8 cc 08 00 00       	call   0xa87
     1bb:	83 c4 04             	add    esp,0x4
     1be:	68 f4 01 00 00       	push   0x1f4
     1c3:	e8 5d 26 00 00       	call   0x2825
     1c8:	83 c4 04             	add    esp,0x4
     1cb:	68 ed bd 00 00       	push   0xbded
     1d0:	e8 b2 08 00 00       	call   0xa87
     1d5:	83 c4 04             	add    esp,0x4
     1d8:	68 f4 01 00 00       	push   0x1f4
     1dd:	e8 43 26 00 00       	call   0x2825
     1e2:	83 c4 04             	add    esp,0x4
     1e5:	ea ec 81 00 00 18 00 	jmp    0x18:0x81ec
     1ec:	b8 20 00 8e d8       	mov    eax,0xd88e0020
     1f1:	8e c0                	mov    es,eax
     1f3:	8e e0                	mov    fs,eax
     1f5:	8e e8                	mov    gs,eax
     1f7:	8e d0                	mov    ss,eax
     1f9:	0f 20 c0             	mov    eax,cr0
     1fc:	66 25 ff ff          	and    ax,0xffff
     200:	ff                   	(bad)
     201:	7f 66                	jg     0x269
     203:	83 e0 fe             	and    eax,0xfffffffe
     206:	0f 22 c0             	mov    cr0,eax
     209:	ea 0e 82 00 00 31 c0 	jmp    0xc031:0x820e
     210:	8e d8                	mov    ds,eax
     212:	8e c0                	mov    es,eax
     214:	8e e0                	mov    fs,eax
     216:	8e e8                	mov    gs,eax
     218:	8e d0                	mov    ss,eax
     21a:	fa                   	cli
     21b:	60                   	pusha
     21c:	06                   	push   es
     21d:	31 c0                	xor    eax,eax
     21f:	8e c0                	mov    es,eax
     221:	bf c4 82 26 66       	mov    edi,0x662682c4
     226:	c7 05 56 45 53 41 b8 	mov    DWORD PTR ds:0x41534556,0xcd4f00b8
     22d:	00 4f cd 
     230:	10 83 f8 4f 0f 85    	adc    BYTE PTR [ebx-0x7af0b008],al
     236:	89 00                	mov    DWORD PTR [eax],eax
     238:	31 ed                	xor    ebp,ebp
     23a:	31 d2                	xor    edx,edx
     23c:	8b 36                	mov    esi,DWORD PTR [esi]
     23e:	d2 82 a1 d4 82 8e    	rol    BYTE PTR [edx-0x717d2b5f],cl
     244:	e0 64                	loopne 0x2aa
     246:	8b 0c 83             	mov    ecx,DWORD PTR [ebx+eax*4]
     249:	f9                   	stc
     24a:	ff 74 59 51          	push   DWORD PTR [ecx+ebx*2+0x51]
     24e:	31 c0                	xor    eax,eax
     250:	8e c0                	mov    es,eax
     252:	bf c4 84 b8 01       	mov    edi,0x1b884c4
     257:	4f                   	dec    edi
     258:	cd 10                	int    0x10
     25a:	59                   	pop    ecx
     25b:	83 f8 4f             	cmp    eax,0x4f
     25e:	75 41                	jne    0x2a1
     260:	a1 c4 84 25 91       	mov    eax,ds:0x912584c4
     265:	00 3d 91 00 75 36    	add    BYTE PTR ds:0x36750091,bh
     26b:	a0 dd 84 3c 20       	mov    al,ds:0x203c84dd
     270:	75 2f                	jne    0x2a1
     272:	a1 d6 84 8b 1e       	mov    eax,ds:0x1e8b84d6
     277:	d8 84 39 e8 77 06 72 	fadd   DWORD PTR [ecx+edi*1+0x720677e8]
     27e:	22 39                	and    bh,BYTE PTR [ecx]
     280:	d3 76 1e             	shl    DWORD PTR [esi+0x1e],cl
     283:	89 c5                	mov    ebp,eax
     285:	89 da                	mov    edx,ebx
     287:	66 a1 ec 84 66 a3    	mov    ax,ds:0xa36684ec
     28d:	c4 85 89 2e c8 85    	les    eax,FWORD PTR [ebp-0x7a37d177]
     293:	89 16                	mov    DWORD PTR [esi],edx
     295:	ca 85 a1             	retf   0xa185
     298:	d4 84                	aam    0x84
     29a:	a3 cc 85 89 0e       	mov    ds:0xe8985cc,eax
     29f:	ce                   	into
     2a0:	85 83 c6 02 eb 9f    	test   DWORD PTR [ebx-0x6014fd3a],eax
     2a6:	85 ed                	test   ebp,ebp
     2a8:	74 17                	je     0x2c1
     2aa:	b8 02 4f 8b 1e       	mov    eax,0x1e8b4f02
     2af:	ce                   	into
     2b0:	85 81 cb 00 40 cd    	test   DWORD PTR [ecx-0x32bfff35],eax
     2b6:	10 83 f8 4f 75 05    	adc    BYTE PTR [ebx+0x5754ff8],al
     2bc:	07                   	pop    es
     2bd:	61                   	popa
     2be:	e9 0f 03 fa f4       	jmp    0xf4fa05d2
     2c3:	90                   	nop
	...
     5d0:	a3 03 ce 0f 20       	mov    ds:0x200fce03,eax
     5d5:	c0 66 83 c8          	shl    BYTE PTR [esi-0x7d],0xc8
     5d9:	01 0f                	add    DWORD PTR [edi],ecx
     5db:	22 c0                	and    al,al
     5dd:	ea e2 85 08 00 66 b8 	jmp    0xb866:0x885e2
     5e4:	10 00                	adc    BYTE PTR [eax],al
     5e6:	8e d8                	mov    ds,eax
     5e8:	8e c0                	mov    es,eax
     5ea:	8e e0                	mov    fs,eax
     5ec:	8e e8                	mov    gs,eax
     5ee:	8e d0                	mov    ss,eax
     5f0:	fa                   	cli
     5f1:	a1 ff cd 00 00       	mov    eax,ds:0xcdff
     5f6:	8b 00                	mov    eax,DWORD PTR [eax]
     5f8:	0f 20 e1             	mov    ecx,cr4
     5fb:	83 c9 20             	or     ecx,0x20
     5fe:	0f 22 e1             	mov    cr4,ecx
     601:	0f 22 d8             	mov    cr3,eax
     604:	b9 80 00 00 c0       	mov    ecx,0xc0000080
     609:	0f 32                	rdmsr
     60b:	0d 00 09 00 00       	or     eax,0x900
     610:	0f 30                	wrmsr
     612:	0f 20 c1             	mov    ecx,cr0
     615:	81 c9 00 00 01 80    	or     ecx,0x80010000
     61b:	0f 22 c1             	mov    cr0,ecx
     61e:	ea 25 86 00 00 28 00 	jmp    0x28:0x8625
     625:	66 b8 30 00          	mov    ax,0x30
     629:	8e d8                	mov    ds,eax
     62b:	8e c0                	mov    es,eax
     62d:	8e e0                	mov    fs,eax
     62f:	8e e8                	mov    gs,eax
     631:	8e d0                	mov    ss,eax
     633:	fa                   	cli
     634:	4c                   	dec    esp
     635:	8b 14 25 ff cd 00 00 	mov    edx,DWORD PTR [eiz*1+0xcdff]
     63c:	4c                   	dec    esp
     63d:	8b 1c 25 03 ce 00 00 	mov    ebx,DWORD PTR [eiz*1+0xce03]
     644:	48                   	dec    eax
     645:	c7 c0 00 00 00 80    	mov    eax,0x80000000
     64b:	ff e0                	jmp    eax
     64d:	55                   	push   ebp
     64e:	89 e5                	mov    ebp,esp
     650:	8b 55 0c             	mov    edx,DWORD PTR [ebp+0xc]
     653:	8b 45 08             	mov    eax,DWORD PTR [ebp+0x8]
     656:	39 c2                	cmp    edx,eax
     658:	0f 46 c2             	cmovbe eax,edx
     65b:	5d                   	pop    ebp
     65c:	c3                   	ret
     65d:	55                   	push   ebp
     65e:	89 e5                	mov    ebp,esp
     660:	83 ec 18             	sub    esp,0x18
     663:	8b 45 08             	mov    eax,DWORD PTR [ebp+0x8]
     666:	88 45 f4             	mov    BYTE PTR [ebp-0xc],al
     669:	8b 45 10             	mov    eax,DWORD PTR [ebp+0x10]
     66c:	c1 e8 18             	shr    eax,0x18
     66f:	83 c8 e0             	or     eax,0xffffffe0
     672:	0f b6 c0             	movzx  eax,al
     675:	83 ec 08             	sub    esp,0x8
     678:	50                   	push   eax
     679:	68 f6 01 00 00       	push   0x1f6
     67e:	e8 1a 35 00 00       	call   0x3b9d
     683:	83 c4 10             	add    esp,0x10
     686:	0f b6 45 f4          	movzx  eax,BYTE PTR [ebp-0xc]
     68a:	83 ec 08             	sub    esp,0x8
     68d:	50                   	push   eax
     68e:	68 f2 01 00 00       	push   0x1f2
     693:	e8 05 35 00 00       	call   0x3b9d
     698:	83 c4 10             	add    esp,0x10
     69b:	8b 45 10             	mov    eax,DWORD PTR [ebp+0x10]
     69e:	0f b6 c0             	movzx  eax,al
     6a1:	83 ec 08             	sub    esp,0x8
     6a4:	50                   	push   eax
     6a5:	68 f3 01 00 00       	push   0x1f3
     6aa:	e8 ee 34 00 00       	call   0x3b9d
     6af:	83 c4 10             	add    esp,0x10
     6b2:	8b 45 10             	mov    eax,DWORD PTR [ebp+0x10]
     6b5:	c1 e8 08             	shr    eax,0x8
     6b8:	0f b6 c0             	movzx  eax,al
     6bb:	83 ec 08             	sub    esp,0x8
     6be:	50                   	push   eax
     6bf:	68 f4 01 00 00       	push   0x1f4
     6c4:	e8 d4 34 00 00       	call   0x3b9d
     6c9:	83 c4 10             	add    esp,0x10
     6cc:	8b 45 10             	mov    eax,DWORD PTR [ebp+0x10]
     6cf:	c1 e8 10             	shr    eax,0x10
     6d2:	0f b6 c0             	movzx  eax,al
     6d5:	83 ec 08             	sub    esp,0x8
     6d8:	50                   	push   eax
     6d9:	68 f5 01 00 00       	push   0x1f5
     6de:	e8 ba 34 00 00       	call   0x3b9d
     6e3:	83 c4 10             	add    esp,0x10
     6e6:	83 ec 08             	sub    esp,0x8
     6e9:	6a 20                	push   0x20
     6eb:	68 f7 01 00 00       	push   0x1f7
     6f0:	e8 a8 34 00 00       	call   0x3b9d
     6f5:	83 c4 10             	add    esp,0x10
     6f8:	eb 57                	jmp    0x751
     6fa:	f3 90                	pause
     6fc:	83 ec 0c             	sub    esp,0xc
     6ff:	68 f7 01 00 00       	push   0x1f7
     704:	e8 41 34 00 00       	call   0x3b4a
     709:	83 c4 10             	add    esp,0x10
     70c:	84 c0                	test   al,al
     70e:	78 ea                	js     0x6fa
     710:	eb 02                	jmp    0x714
     712:	f3 90                	pause
     714:	83 ec 0c             	sub    esp,0xc
     717:	68 f7 01 00 00       	push   0x1f7
     71c:	e8 29 34 00 00       	call   0x3b4a
     721:	83 c4 10             	add    esp,0x10
     724:	0f b6 c0             	movzx  eax,al
     727:	83 e0 08             	and    eax,0x8
     72a:	85 c0                	test   eax,eax
     72c:	74 e4                	je     0x712
     72e:	83 ec 04             	sub    esp,0x4
     731:	68 00 01 00 00       	push   0x100
     736:	ff 75 0c             	push   DWORD PTR [ebp+0xc]
     739:	68 f0 01 00 00       	push   0x1f0
     73e:	e8 45 34 00 00       	call   0x3b88
     743:	83 c4 10             	add    esp,0x10
     746:	8b 45 0c             	mov    eax,DWORD PTR [ebp+0xc]
     749:	05 00 02 00 00       	add    eax,0x200
     74e:	89 45 0c             	mov    DWORD PTR [ebp+0xc],eax
     751:	0f b6 45 f4          	movzx  eax,BYTE PTR [ebp-0xc]
     755:	8d 50 ff             	lea    edx,[eax-0x1]
     758:	88 55 f4             	mov    BYTE PTR [ebp-0xc],dl
     75b:	84 c0                	test   al,al
     75d:	75 9d                	jne    0x6fc
     75f:	90                   	nop
     760:	90                   	nop
     761:	c9                   	leave
     762:	c3                   	ret
     763:	55                   	push   ebp
     764:	89 e5                	mov    ebp,esp
     766:	83 ec 28             	sub    esp,0x28
     769:	c7 45 f4 40 00 00 00 	mov    DWORD PTR [ebp-0xc],0x40
     770:	8b 45 08             	mov    eax,DWORD PTR [ebp+0x8]
     773:	8b 50 14             	mov    edx,DWORD PTR [eax+0x14]
     776:	8b 40 10             	mov    eax,DWORD PTR [eax+0x10]
     779:	89 45 f0             	mov    DWORD PTR [ebp-0x10],eax
     77c:	c7 45 ec 00 10 00 00 	mov    DWORD PTR [ebp-0x14],0x1000
     783:	c7 45 e8 08 ce 00 00 	mov    DWORD PTR [ebp-0x18],0xce08
     78a:	8b 45 f0             	mov    eax,DWORD PTR [ebp-0x10]
     78d:	83 ec 0c             	sub    esp,0xc
     790:	50                   	push   eax
     791:	e8 95 2d 00 00       	call   0x352b
     796:	83 c4 10             	add    esp,0x10
     799:	83 ec 08             	sub    esp,0x8
     79c:	50                   	push   eax
     79d:	ff 75 e8             	push   DWORD PTR [ebp-0x18]
     7a0:	e8 f3 2e 00 00       	call   0x3698
     7a5:	83 c4 10             	add    esp,0x10
     7a8:	89 45 e8             	mov    DWORD PTR [ebp-0x18],eax
     7ab:	83 ec 08             	sub    esp,0x8
     7ae:	68 34 ce 00 00       	push   0xce34
     7b3:	ff 75 e8             	push   DWORD PTR [ebp-0x18]
     7b6:	e8 dd 2e 00 00       	call   0x3698
     7bb:	83 c4 10             	add    esp,0x10
     7be:	89 45 e8             	mov    DWORD PTR [ebp-0x18],eax
     7c1:	83 ec 0c             	sub    esp,0xc
     7c4:	ff 75 e8             	push   DWORD PTR [ebp-0x18]
     7c7:	e8 bb 02 00 00       	call   0xa87
     7cc:	83 c4 10             	add    esp,0x10
     7cf:	e8 06 20 00 00       	call   0x27da
     7d4:	e9 b9 00 00 00       	jmp    0x892
     7d9:	83 ec 08             	sub    esp,0x8
     7dc:	68 ff 00 00 00       	push   0xff
     7e1:	ff 75 ec             	push   DWORD PTR [ebp-0x14]
     7e4:	e8 64 fe ff ff       	call   0x64d
     7e9:	83 c4 10             	add    esp,0x10
     7ec:	88 45 e7             	mov    BYTE PTR [ebp-0x19],al
     7ef:	0f b6 45 e7          	movzx  eax,BYTE PTR [ebp-0x19]
     7f3:	83 ec 04             	sub    esp,0x4
     7f6:	ff 75 f4             	push   DWORD PTR [ebp-0xc]
     7f9:	ff 75 f0             	push   DWORD PTR [ebp-0x10]
     7fc:	50                   	push   eax
     7fd:	e8 5b fe ff ff       	call   0x65d
     802:	83 c4 10             	add    esp,0x10
     805:	c7 45 e0 38 ce 00 00 	mov    DWORD PTR [ebp-0x20],0xce38
     80c:	0f b6 45 e7          	movzx  eax,BYTE PTR [ebp-0x19]
     810:	c1 e0 09             	shl    eax,0x9
     813:	83 ec 0c             	sub    esp,0xc
     816:	50                   	push   eax
     817:	e8 0f 2d 00 00       	call   0x352b
     81c:	83 c4 10             	add    esp,0x10
     81f:	83 ec 08             	sub    esp,0x8
     822:	50                   	push   eax
     823:	ff 75 e0             	push   DWORD PTR [ebp-0x20]
     826:	e8 6d 2e 00 00       	call   0x3698
     82b:	83 c4 10             	add    esp,0x10
     82e:	89 45 e0             	mov    DWORD PTR [ebp-0x20],eax
     831:	83 ec 08             	sub    esp,0x8
     834:	68 44 ce 00 00       	push   0xce44
     839:	ff 75 e0             	push   DWORD PTR [ebp-0x20]
     83c:	e8 57 2e 00 00       	call   0x3698
     841:	83 c4 10             	add    esp,0x10
     844:	89 45 e0             	mov    DWORD PTR [ebp-0x20],eax
     847:	83 ec 0c             	sub    esp,0xc
     84a:	ff 75 f4             	push   DWORD PTR [ebp-0xc]
     84d:	e8 d9 2c 00 00       	call   0x352b
     852:	83 c4 10             	add    esp,0x10
     855:	83 ec 08             	sub    esp,0x8
     858:	50                   	push   eax
     859:	ff 75 e0             	push   DWORD PTR [ebp-0x20]
     85c:	e8 37 2e 00 00       	call   0x3698
     861:	83 c4 10             	add    esp,0x10
     864:	89 45 e0             	mov    DWORD PTR [ebp-0x20],eax
     867:	0f b6 45 e7          	movzx  eax,BYTE PTR [ebp-0x19]
     86b:	c1 e0 09             	shl    eax,0x9
     86e:	01 45 f0             	add    DWORD PTR [ebp-0x10],eax
     871:	0f b6 45 e7          	movzx  eax,BYTE PTR [ebp-0x19]
     875:	01 45 f4             	add    DWORD PTR [ebp-0xc],eax
     878:	0f b6 45 e7          	movzx  eax,BYTE PTR [ebp-0x19]
     87c:	29 45 ec             	sub    DWORD PTR [ebp-0x14],eax
     87f:	83 ec 0c             	sub    esp,0xc
     882:	ff 75 e0             	push   DWORD PTR [ebp-0x20]
     885:	e8 d1 00 00 00       	call   0x95b
     88a:	83 c4 10             	add    esp,0x10
     88d:	e8 48 1f 00 00       	call   0x27da
     892:	83 7d ec 00          	cmp    DWORD PTR [ebp-0x14],0x0
     896:	0f 85 3d ff ff ff    	jne    0x7d9
     89c:	90                   	nop
     89d:	90                   	nop
     89e:	c9                   	leave
     89f:	c3                   	ret
     8a0:	55                   	push   ebp
     8a1:	89 e5                	mov    ebp,esp
     8a3:	83 ec 48             	sub    esp,0x48
     8a6:	8b 45 08             	mov    eax,DWORD PTR [ebp+0x8]
     8a9:	89 45 c0             	mov    DWORD PTR [ebp-0x40],eax
     8ac:	8b 45 0c             	mov    eax,DWORD PTR [ebp+0xc]
     8af:	89 45 c4             	mov    DWORD PTR [ebp-0x3c],eax
     8b2:	c7 45 f4 14 00 00 00 	mov    DWORD PTR [ebp-0xc],0x14
     8b9:	8d 55 d7             	lea    edx,[ebp-0x29]
     8bc:	8b 45 f4             	mov    eax,DWORD PTR [ebp-0xc]
     8bf:	01 d0                	add    eax,edx
     8c1:	c6 00 00             	mov    BYTE PTR [eax],0x0
     8c4:	6a 00                	push   0x0
     8c6:	6a 0a                	push   0xa
     8c8:	ff 75 c4             	push   DWORD PTR [ebp-0x3c]
     8cb:	ff 75 c0             	push   DWORD PTR [ebp-0x40]
     8ce:	e8 27 03 00 00       	call   0xbfa
     8d3:	83 c4 10             	add    esp,0x10
     8d6:	83 c0 30             	add    eax,0x30
     8d9:	83 6d f4 01          	sub    DWORD PTR [ebp-0xc],0x1
     8dd:	89 c1                	mov    ecx,eax
     8df:	8d 55 d7             	lea    edx,[ebp-0x29]
     8e2:	8b 45 f4             	mov    eax,DWORD PTR [ebp-0xc]
     8e5:	01 d0                	add    eax,edx
     8e7:	88 08                	mov    BYTE PTR [eax],cl
     8e9:	6a 00                	push   0x0
     8eb:	6a 0a                	push   0xa
     8ed:	ff 75 c4             	push   DWORD PTR [ebp-0x3c]
     8f0:	ff 75 c0             	push   DWORD PTR [ebp-0x40]
     8f3:	e8 03 02 00 00       	call   0xafb
     8f8:	83 c4 10             	add    esp,0x10
     8fb:	89 45 c0             	mov    DWORD PTR [ebp-0x40],eax
     8fe:	89 55 c4             	mov    DWORD PTR [ebp-0x3c],edx
     901:	8b 45 c0             	mov    eax,DWORD PTR [ebp-0x40]
     904:	0b 45 c4             	or     eax,DWORD PTR [ebp-0x3c]
     907:	75 bb                	jne    0x8c4
     909:	b8 14 00 00 00       	mov    eax,0x14
     90e:	2b 45 f4             	sub    eax,DWORD PTR [ebp-0xc]
     911:	89 45 f0             	mov    DWORD PTR [ebp-0x10],eax
     914:	8b 45 f0             	mov    eax,DWORD PTR [ebp-0x10]
     917:	83 c0 01             	add    eax,0x1
     91a:	83 ec 0c             	sub    esp,0xc
     91d:	50                   	push   eax
     91e:	e8 44 1d 00 00       	call   0x2667
     923:	83 c4 10             	add    esp,0x10
     926:	89 45 ec             	mov    DWORD PTR [ebp-0x14],eax
     929:	83 7d ec 00          	cmp    DWORD PTR [ebp-0x14],0x0
     92d:	75 07                	jne    0x936
     92f:	b8 00 00 00 00       	mov    eax,0x0
     934:	eb 23                	jmp    0x959
     936:	8b 45 f0             	mov    eax,DWORD PTR [ebp-0x10]
     939:	83 c0 01             	add    eax,0x1
     93c:	89 c1                	mov    ecx,eax
     93e:	8d 55 d7             	lea    edx,[ebp-0x29]
     941:	8b 45 f4             	mov    eax,DWORD PTR [ebp-0xc]
     944:	01 d0                	add    eax,edx
     946:	83 ec 04             	sub    esp,0x4
     949:	51                   	push   ecx
     94a:	ff 75 ec             	push   DWORD PTR [ebp-0x14]
     94d:	50                   	push   eax
     94e:	e8 09 31 00 00       	call   0x3a5c
     953:	83 c4 10             	add    esp,0x10
     956:	8b 45 ec             	mov    eax,DWORD PTR [ebp-0x14]
     959:	c9                   	leave
     95a:	c3                   	ret
     95b:	55                   	push   ebp
     95c:	89 e5                	mov    ebp,esp
     95e:	83 ec 08             	sub    esp,0x8
     961:	83 ec 0c             	sub    esp,0xc
     964:	6a 0f                	push   0xf
     966:	e8 b4 06 00 00       	call   0x101f
     96b:	83 c4 10             	add    esp,0x10
     96e:	83 ec 0c             	sub    esp,0xc
     971:	ff 75 08             	push   DWORD PTR [ebp+0x8]
     974:	e8 a5 04 00 00       	call   0xe1e
     979:	83 c4 10             	add    esp,0x10
     97c:	e8 58 06 00 00       	call   0xfd9
     981:	83 ec 0c             	sub    esp,0xc
     984:	ff 75 08             	push   DWORD PTR [ebp+0x8]
     987:	e8 3d 26 00 00       	call   0x2fc9
     98c:	83 c4 10             	add    esp,0x10
     98f:	83 ec 0c             	sub    esp,0xc
     992:	6a 32                	push   0x32
     994:	e8 8c 1e 00 00       	call   0x2825
     999:	83 c4 10             	add    esp,0x10
     99c:	90                   	nop
     99d:	c9                   	leave
     99e:	c3                   	ret
     99f:	55                   	push   ebp
     9a0:	89 e5                	mov    ebp,esp
     9a2:	83 ec 08             	sub    esp,0x8
     9a5:	83 ec 0c             	sub    esp,0xc
     9a8:	6a 04                	push   0x4
     9aa:	e8 70 06 00 00       	call   0x101f
     9af:	83 c4 10             	add    esp,0x10
     9b2:	83 ec 0c             	sub    esp,0xc
     9b5:	68 58 ce 00 00       	push   0xce58
     9ba:	e8 5f 04 00 00       	call   0xe1e
     9bf:	83 c4 10             	add    esp,0x10
     9c2:	83 ec 0c             	sub    esp,0xc
     9c5:	ff 75 08             	push   DWORD PTR [ebp+0x8]
     9c8:	e8 51 04 00 00       	call   0xe1e
     9cd:	83 c4 10             	add    esp,0x10
     9d0:	83 ec 0c             	sub    esp,0xc
     9d3:	6a 0f                	push   0xf
     9d5:	e8 45 06 00 00       	call   0x101f
     9da:	83 c4 10             	add    esp,0x10
     9dd:	e8 f7 05 00 00       	call   0xfd9
     9e2:	83 ec 0c             	sub    esp,0xc
     9e5:	68 58 ce 00 00       	push   0xce58
     9ea:	e8 80 25 00 00       	call   0x2f6f
     9ef:	83 c4 10             	add    esp,0x10
     9f2:	83 ec 0c             	sub    esp,0xc
     9f5:	ff 75 08             	push   DWORD PTR [ebp+0x8]
     9f8:	e8 cc 25 00 00       	call   0x2fc9
     9fd:	83 c4 10             	add    esp,0x10
     a00:	83 ec 0c             	sub    esp,0xc
     a03:	68 f4 01 00 00       	push   0x1f4
     a08:	e8 18 1e 00 00       	call   0x2825
     a0d:	83 c4 10             	add    esp,0x10
     a10:	90                   	nop
     a11:	c9                   	leave
     a12:	c3                   	ret
     a13:	55                   	push   ebp
     a14:	89 e5                	mov    ebp,esp
     a16:	83 ec 08             	sub    esp,0x8
     a19:	83 ec 0c             	sub    esp,0xc
     a1c:	6a 02                	push   0x2
     a1e:	e8 fc 05 00 00       	call   0x101f
     a23:	83 c4 10             	add    esp,0x10
     a26:	83 ec 0c             	sub    esp,0xc
     a29:	68 60 ce 00 00       	push   0xce60
     a2e:	e8 eb 03 00 00       	call   0xe1e
     a33:	83 c4 10             	add    esp,0x10
     a36:	83 ec 0c             	sub    esp,0xc
     a39:	ff 75 08             	push   DWORD PTR [ebp+0x8]
     a3c:	e8 dd 03 00 00       	call   0xe1e
     a41:	83 c4 10             	add    esp,0x10
     a44:	83 ec 0c             	sub    esp,0xc
     a47:	6a 0f                	push   0xf
     a49:	e8 d1 05 00 00       	call   0x101f
     a4e:	83 c4 10             	add    esp,0x10
     a51:	e8 83 05 00 00       	call   0xfd9
     a56:	83 ec 0c             	sub    esp,0xc
     a59:	68 60 ce 00 00       	push   0xce60
     a5e:	e8 0c 25 00 00       	call   0x2f6f
     a63:	83 c4 10             	add    esp,0x10
     a66:	83 ec 0c             	sub    esp,0xc
     a69:	ff 75 08             	push   DWORD PTR [ebp+0x8]
     a6c:	e8 58 25 00 00       	call   0x2fc9
     a71:	83 c4 10             	add    esp,0x10
     a74:	83 ec 0c             	sub    esp,0xc
     a77:	68 f4 01 00 00       	push   0x1f4
     a7c:	e8 a4 1d 00 00       	call   0x2825
     a81:	83 c4 10             	add    esp,0x10
     a84:	90                   	nop
     a85:	c9                   	leave
     a86:	c3                   	ret
     a87:	55                   	push   ebp
     a88:	89 e5                	mov    ebp,esp
     a8a:	83 ec 08             	sub    esp,0x8
     a8d:	83 ec 0c             	sub    esp,0xc
     a90:	6a 0e                	push   0xe
     a92:	e8 88 05 00 00       	call   0x101f
     a97:	83 c4 10             	add    esp,0x10
     a9a:	83 ec 0c             	sub    esp,0xc
     a9d:	68 6a ce 00 00       	push   0xce6a
     aa2:	e8 77 03 00 00       	call   0xe1e
     aa7:	83 c4 10             	add    esp,0x10
     aaa:	83 ec 0c             	sub    esp,0xc
     aad:	ff 75 08             	push   DWORD PTR [ebp+0x8]
     ab0:	e8 69 03 00 00       	call   0xe1e
     ab5:	83 c4 10             	add    esp,0x10
     ab8:	83 ec 0c             	sub    esp,0xc
     abb:	6a 0f                	push   0xf
     abd:	e8 5d 05 00 00       	call   0x101f
     ac2:	83 c4 10             	add    esp,0x10
     ac5:	e8 0f 05 00 00       	call   0xfd9
     aca:	83 ec 0c             	sub    esp,0xc
     acd:	68 6a ce 00 00       	push   0xce6a
     ad2:	e8 98 24 00 00       	call   0x2f6f
     ad7:	83 c4 10             	add    esp,0x10
     ada:	83 ec 0c             	sub    esp,0xc
     add:	ff 75 08             	push   DWORD PTR [ebp+0x8]
     ae0:	e8 e4 24 00 00       	call   0x2fc9
     ae5:	83 c4 10             	add    esp,0x10
     ae8:	83 ec 0c             	sub    esp,0xc
     aeb:	68 f4 01 00 00       	push   0x1f4
     af0:	e8 30 1d 00 00       	call   0x2825
     af5:	83 c4 10             	add    esp,0x10
     af8:	90                   	nop
     af9:	c9                   	leave
     afa:	c3                   	ret
     afb:	55                   	push   ebp
     afc:	89 e5                	mov    ebp,esp
     afe:	83 ec 30             	sub    esp,0x30
     b01:	8b 45 08             	mov    eax,DWORD PTR [ebp+0x8]
     b04:	89 45 d8             	mov    DWORD PTR [ebp-0x28],eax
     b07:	8b 45 0c             	mov    eax,DWORD PTR [ebp+0xc]
     b0a:	89 45 dc             	mov    DWORD PTR [ebp-0x24],eax
     b0d:	8b 45 10             	mov    eax,DWORD PTR [ebp+0x10]
     b10:	89 45 d0             	mov    DWORD PTR [ebp-0x30],eax
     b13:	8b 45 14             	mov    eax,DWORD PTR [ebp+0x14]
     b16:	89 45 d4             	mov    DWORD PTR [ebp-0x2c],eax
     b19:	8b 45 d0             	mov    eax,DWORD PTR [ebp-0x30]
     b1c:	0b 45 d4             	or     eax,DWORD PTR [ebp-0x2c]
     b1f:	75 0f                	jne    0xb30
     b21:	b8 00 00 00 00       	mov    eax,0x0
     b26:	ba 00 00 00 00       	mov    edx,0x0
     b2b:	e9 c8 00 00 00       	jmp    0xbf8
     b30:	8b 45 d8             	mov    eax,DWORD PTR [ebp-0x28]
     b33:	8b 55 dc             	mov    edx,DWORD PTR [ebp-0x24]
     b36:	3b 45 d0             	cmp    eax,DWORD PTR [ebp-0x30]
     b39:	89 d0                	mov    eax,edx
     b3b:	1b 45 d4             	sbb    eax,DWORD PTR [ebp-0x2c]
     b3e:	73 0f                	jae    0xb4f
     b40:	b8 00 00 00 00       	mov    eax,0x0
     b45:	ba 00 00 00 00       	mov    edx,0x0
     b4a:	e9 a9 00 00 00       	jmp    0xbf8
     b4f:	c7 45 f8 00 00 00 00 	mov    DWORD PTR [ebp-0x8],0x0
     b56:	c7 45 fc 00 00 00 00 	mov    DWORD PTR [ebp-0x4],0x0
     b5d:	c7 45 f0 00 00 00 00 	mov    DWORD PTR [ebp-0x10],0x0
     b64:	c7 45 f4 00 00 00 00 	mov    DWORD PTR [ebp-0xc],0x0
     b6b:	c7 45 ec 3f 00 00 00 	mov    DWORD PTR [ebp-0x14],0x3f
     b72:	eb 78                	jmp    0xbec
     b74:	8b 45 f0             	mov    eax,DWORD PTR [ebp-0x10]
     b77:	8b 55 f4             	mov    edx,DWORD PTR [ebp-0xc]
     b7a:	0f a4 c2 01          	shld   edx,eax,0x1
     b7e:	01 c0                	add    eax,eax
     b80:	89 45 f0             	mov    DWORD PTR [ebp-0x10],eax
     b83:	89 55 f4             	mov    DWORD PTR [ebp-0xc],edx
     b86:	8b 4d ec             	mov    ecx,DWORD PTR [ebp-0x14]
     b89:	8b 45 d8             	mov    eax,DWORD PTR [ebp-0x28]
     b8c:	8b 55 dc             	mov    edx,DWORD PTR [ebp-0x24]
     b8f:	0f ad d0             	shrd   eax,edx,cl
     b92:	d3 ea                	shr    edx,cl
     b94:	f6 c1 20             	test   cl,0x20
     b97:	74 04                	je     0xb9d
     b99:	89 d0                	mov    eax,edx
     b9b:	31 d2                	xor    edx,edx
     b9d:	83 e0 01             	and    eax,0x1
     ba0:	ba 00 00 00 00       	mov    edx,0x0
     ba5:	09 45 f0             	or     DWORD PTR [ebp-0x10],eax
     ba8:	09 55 f4             	or     DWORD PTR [ebp-0xc],edx
     bab:	8b 45 f0             	mov    eax,DWORD PTR [ebp-0x10]
     bae:	8b 55 f4             	mov    edx,DWORD PTR [ebp-0xc]
     bb1:	3b 45 d0             	cmp    eax,DWORD PTR [ebp-0x30]
     bb4:	89 d0                	mov    eax,edx
     bb6:	1b 45 d4             	sbb    eax,DWORD PTR [ebp-0x2c]
     bb9:	72 2d                	jb     0xbe8
     bbb:	8b 45 d0             	mov    eax,DWORD PTR [ebp-0x30]
     bbe:	8b 55 d4             	mov    edx,DWORD PTR [ebp-0x2c]
     bc1:	29 45 f0             	sub    DWORD PTR [ebp-0x10],eax
     bc4:	19 55 f4             	sbb    DWORD PTR [ebp-0xc],edx
     bc7:	8b 4d ec             	mov    ecx,DWORD PTR [ebp-0x14]
     bca:	b8 01 00 00 00       	mov    eax,0x1
     bcf:	ba 00 00 00 00       	mov    edx,0x0
     bd4:	0f a5 c2             	shld   edx,eax,cl
     bd7:	d3 e0                	shl    eax,cl
     bd9:	f6 c1 20             	test   cl,0x20
     bdc:	74 04                	je     0xbe2
     bde:	89 c2                	mov    edx,eax
     be0:	31 c0                	xor    eax,eax
     be2:	09 45 f8             	or     DWORD PTR [ebp-0x8],eax
     be5:	09 55 fc             	or     DWORD PTR [ebp-0x4],edx
     be8:	83 6d ec 01          	sub    DWORD PTR [ebp-0x14],0x1
     bec:	83 7d ec 00          	cmp    DWORD PTR [ebp-0x14],0x0
     bf0:	79 82                	jns    0xb74
     bf2:	8b 45 f8             	mov    eax,DWORD PTR [ebp-0x8]
     bf5:	8b 55 fc             	mov    edx,DWORD PTR [ebp-0x4]
     bf8:	c9                   	leave
     bf9:	c3                   	ret
     bfa:	55                   	push   ebp
     bfb:	89 e5                	mov    ebp,esp
     bfd:	83 ec 20             	sub    esp,0x20
     c00:	8b 45 08             	mov    eax,DWORD PTR [ebp+0x8]
     c03:	89 45 e8             	mov    DWORD PTR [ebp-0x18],eax
     c06:	8b 45 0c             	mov    eax,DWORD PTR [ebp+0xc]
     c09:	89 45 ec             	mov    DWORD PTR [ebp-0x14],eax
     c0c:	8b 45 10             	mov    eax,DWORD PTR [ebp+0x10]
     c0f:	89 45 e0             	mov    DWORD PTR [ebp-0x20],eax
     c12:	8b 45 14             	mov    eax,DWORD PTR [ebp+0x14]
     c15:	89 45 e4             	mov    DWORD PTR [ebp-0x1c],eax
     c18:	8b 45 e0             	mov    eax,DWORD PTR [ebp-0x20]
     c1b:	0b 45 e4             	or     eax,DWORD PTR [ebp-0x1c]
     c1e:	75 0f                	jne    0xc2f
     c20:	b8 00 00 00 00       	mov    eax,0x0
     c25:	ba 00 00 00 00       	mov    edx,0x0
     c2a:	e9 92 00 00 00       	jmp    0xcc1
     c2f:	8b 45 e8             	mov    eax,DWORD PTR [ebp-0x18]
     c32:	8b 55 ec             	mov    edx,DWORD PTR [ebp-0x14]
     c35:	3b 45 e0             	cmp    eax,DWORD PTR [ebp-0x20]
     c38:	89 d0                	mov    eax,edx
     c3a:	1b 45 e4             	sbb    eax,DWORD PTR [ebp-0x1c]
     c3d:	73 08                	jae    0xc47
     c3f:	8b 45 e8             	mov    eax,DWORD PTR [ebp-0x18]
     c42:	8b 55 ec             	mov    edx,DWORD PTR [ebp-0x14]
     c45:	eb 7a                	jmp    0xcc1
     c47:	c7 45 f8 00 00 00 00 	mov    DWORD PTR [ebp-0x8],0x0
     c4e:	c7 45 fc 00 00 00 00 	mov    DWORD PTR [ebp-0x4],0x0
     c55:	c7 45 f4 3f 00 00 00 	mov    DWORD PTR [ebp-0xc],0x3f
     c5c:	eb 57                	jmp    0xcb5
     c5e:	8b 45 f8             	mov    eax,DWORD PTR [ebp-0x8]
     c61:	8b 55 fc             	mov    edx,DWORD PTR [ebp-0x4]
     c64:	0f a4 c2 01          	shld   edx,eax,0x1
     c68:	01 c0                	add    eax,eax
     c6a:	89 45 f8             	mov    DWORD PTR [ebp-0x8],eax
     c6d:	89 55 fc             	mov    DWORD PTR [ebp-0x4],edx
     c70:	8b 4d f4             	mov    ecx,DWORD PTR [ebp-0xc]
     c73:	8b 45 e8             	mov    eax,DWORD PTR [ebp-0x18]
     c76:	8b 55 ec             	mov    edx,DWORD PTR [ebp-0x14]
     c79:	0f ad d0             	shrd   eax,edx,cl
     c7c:	d3 ea                	shr    edx,cl
     c7e:	f6 c1 20             	test   cl,0x20
     c81:	74 04                	je     0xc87
     c83:	89 d0                	mov    eax,edx
     c85:	31 d2                	xor    edx,edx
     c87:	83 e0 01             	and    eax,0x1
     c8a:	ba 00 00 00 00       	mov    edx,0x0
     c8f:	09 45 f8             	or     DWORD PTR [ebp-0x8],eax
     c92:	09 55 fc             	or     DWORD PTR [ebp-0x4],edx
     c95:	8b 45 f8             	mov    eax,DWORD PTR [ebp-0x8]
     c98:	8b 55 fc             	mov    edx,DWORD PTR [ebp-0x4]
     c9b:	3b 45 e0             	cmp    eax,DWORD PTR [ebp-0x20]
     c9e:	89 d0                	mov    eax,edx
     ca0:	1b 45 e4             	sbb    eax,DWORD PTR [ebp-0x1c]
     ca3:	72 0c                	jb     0xcb1
     ca5:	8b 45 e0             	mov    eax,DWORD PTR [ebp-0x20]
     ca8:	8b 55 e4             	mov    edx,DWORD PTR [ebp-0x1c]
     cab:	29 45 f8             	sub    DWORD PTR [ebp-0x8],eax
     cae:	19 55 fc             	sbb    DWORD PTR [ebp-0x4],edx
     cb1:	83 6d f4 01          	sub    DWORD PTR [ebp-0xc],0x1
     cb5:	83 7d f4 00          	cmp    DWORD PTR [ebp-0xc],0x0
     cb9:	79 a3                	jns    0xc5e
     cbb:	8b 45 f8             	mov    eax,DWORD PTR [ebp-0x8]
     cbe:	8b 55 fc             	mov    edx,DWORD PTR [ebp-0x4]
     cc1:	c9                   	leave
     cc2:	c3                   	ret
     cc3:	55                   	push   ebp
     cc4:	89 e5                	mov    ebp,esp
     cc6:	83 ec 18             	sub    esp,0x18
     cc9:	a1 08 e0 00 00       	mov    eax,ds:0xe008
     cce:	89 c2                	mov    edx,eax
     cd0:	a1 00 e0 00 00       	mov    eax,ds:0xe000
     cd5:	29 c2                	sub    edx,eax
     cd7:	89 d0                	mov    eax,edx
     cd9:	d1 e8                	shr    eax,1
     cdb:	89 45 f4             	mov    DWORD PTR [ebp-0xc],eax
     cde:	83 ec 08             	sub    esp,0x8
     ce1:	6a 0e                	push   0xe
     ce3:	68 d4 03 00 00       	push   0x3d4
     ce8:	e8 b0 2e 00 00       	call   0x3b9d
     ced:	83 c4 10             	add    esp,0x10
     cf0:	8b 45 f4             	mov    eax,DWORD PTR [ebp-0xc]
     cf3:	c1 e8 08             	shr    eax,0x8
     cf6:	0f b6 c0             	movzx  eax,al
     cf9:	83 ec 08             	sub    esp,0x8
     cfc:	50                   	push   eax
     cfd:	68 d5 03 00 00       	push   0x3d5
     d02:	e8 96 2e 00 00       	call   0x3b9d
     d07:	83 c4 10             	add    esp,0x10
     d0a:	83 ec 08             	sub    esp,0x8
     d0d:	6a 0f                	push   0xf
     d0f:	68 d4 03 00 00       	push   0x3d4
     d14:	e8 84 2e 00 00       	call   0x3b9d
     d19:	83 c4 10             	add    esp,0x10
     d1c:	8b 45 f4             	mov    eax,DWORD PTR [ebp-0xc]
     d1f:	0f b6 c0             	movzx  eax,al
     d22:	83 ec 08             	sub    esp,0x8
     d25:	50                   	push   eax
     d26:	68 d5 03 00 00       	push   0x3d5
     d2b:	e8 6d 2e 00 00       	call   0x3b9d
     d30:	83 c4 10             	add    esp,0x10
     d33:	90                   	nop
     d34:	c9                   	leave
     d35:	c3                   	ret
     d36:	55                   	push   ebp
     d37:	89 e5                	mov    ebp,esp
     d39:	83 ec 18             	sub    esp,0x18
     d3c:	8b 45 08             	mov    eax,DWORD PTR [ebp+0x8]
     d3f:	66 89 45 f4          	mov    WORD PTR [ebp-0xc],ax
     d43:	eb 05                	jmp    0xd4a
     d45:	e8 31 00 00 00       	call   0xd7b
     d4a:	a1 08 e0 00 00       	mov    eax,ds:0xe008
     d4f:	89 c2                	mov    edx,eax
     d51:	a1 04 e0 00 00       	mov    eax,ds:0xe004
     d56:	39 c2                	cmp    edx,eax
     d58:	73 eb                	jae    0xd45
     d5a:	a1 08 e0 00 00       	mov    eax,ds:0xe008
     d5f:	0f b7 55 f4          	movzx  edx,WORD PTR [ebp-0xc]
     d63:	66 89 10             	mov    WORD PTR [eax],dx
     d66:	a1 08 e0 00 00       	mov    eax,ds:0xe008
     d6b:	83 c0 02             	add    eax,0x2
     d6e:	a3 08 e0 00 00       	mov    ds:0xe008,eax
     d73:	e8 4b ff ff ff       	call   0xcc3
     d78:	90                   	nop
     d79:	c9                   	leave
     d7a:	c3                   	ret
     d7b:	55                   	push   ebp
     d7c:	89 e5                	mov    ebp,esp
     d7e:	53                   	push   ebx
     d7f:	83 ec 24             	sub    esp,0x24
     d82:	a1 00 e0 00 00       	mov    eax,ds:0xe000
     d87:	89 45 f4             	mov    DWORD PTR [ebp-0xc],eax
     d8a:	8b 45 f4             	mov    eax,DWORD PTR [ebp-0xc]
     d8d:	89 45 f0             	mov    DWORD PTR [ebp-0x10],eax
     d90:	8b 45 f4             	mov    eax,DWORD PTR [ebp-0xc]
     d93:	05 a0 00 00 00       	add    eax,0xa0
     d98:	89 45 ec             	mov    DWORD PTR [ebp-0x14],eax
     d9b:	c7 45 e8 00 0f 00 00 	mov    DWORD PTR [ebp-0x18],0xf00
     da2:	83 ec 04             	sub    esp,0x4
     da5:	ff 75 e8             	push   DWORD PTR [ebp-0x18]
     da8:	ff 75 f0             	push   DWORD PTR [ebp-0x10]
     dab:	ff 75 ec             	push   DWORD PTR [ebp-0x14]
     dae:	e8 a9 2c 00 00       	call   0x3a5c
     db3:	83 c4 10             	add    esp,0x10
     db6:	8b 45 f4             	mov    eax,DWORD PTR [ebp-0xc]
     db9:	05 00 0f 00 00       	add    eax,0xf00
     dbe:	89 45 e4             	mov    DWORD PTR [ebp-0x1c],eax
     dc1:	83 ec 04             	sub    esp,0x4
     dc4:	6a 00                	push   0x0
     dc6:	68 a0 00 00 00       	push   0xa0
     dcb:	ff 75 e4             	push   DWORD PTR [ebp-0x1c]
     dce:	e8 cb 2c 00 00       	call   0x3a9e
     dd3:	83 c4 10             	add    esp,0x10
     dd6:	e8 d2 01 00 00       	call   0xfad
     ddb:	83 e8 01             	sub    eax,0x1
     dde:	88 45 e3             	mov    BYTE PTR [ebp-0x1d],al
     de1:	0f b6 5d e3          	movzx  ebx,BYTE PTR [ebp-0x1d]
     de5:	e8 87 01 00 00       	call   0xf71
     dea:	0f b6 c0             	movzx  eax,al
     ded:	83 ec 08             	sub    esp,0x8
     df0:	53                   	push   ebx
     df1:	50                   	push   eax
     df2:	e8 2a 01 00 00       	call   0xf21
     df7:	83 c4 10             	add    esp,0x10
     dfa:	90                   	nop
     dfb:	8b 5d fc             	mov    ebx,DWORD PTR [ebp-0x4]
     dfe:	c9                   	leave
     dff:	c3                   	ret
     e00:	55                   	push   ebp
     e01:	89 e5                	mov    ebp,esp
     e03:	83 ec 08             	sub    esp,0x8
     e06:	8b 45 08             	mov    eax,DWORD PTR [ebp+0x8]
     e09:	a3 00 e0 00 00       	mov    ds:0xe000,eax
     e0e:	8b 45 0c             	mov    eax,DWORD PTR [ebp+0xc]
     e11:	a3 04 e0 00 00       	mov    ds:0xe004,eax
     e16:	e8 9d 02 00 00       	call   0x10b8
     e1b:	90                   	nop
     e1c:	c9                   	leave
     e1d:	c3                   	ret
     e1e:	55                   	push   ebp
     e1f:	89 e5                	mov    ebp,esp
     e21:	53                   	push   ebx
     e22:	83 ec 14             	sub    esp,0x14
     e25:	c7 45 f4 00 00 00 00 	mov    DWORD PTR [ebp-0xc],0x0
     e2c:	8b 45 f4             	mov    eax,DWORD PTR [ebp-0xc]
     e2f:	8d 50 01             	lea    edx,[eax+0x1]
     e32:	89 55 f4             	mov    DWORD PTR [ebp-0xc],edx
     e35:	89 c2                	mov    edx,eax
     e37:	8b 45 08             	mov    eax,DWORD PTR [ebp+0x8]
     e3a:	01 d0                	add    eax,edx
     e3c:	0f b6 00             	movzx  eax,BYTE PTR [eax]
     e3f:	88 45 f3             	mov    BYTE PTR [ebp-0xd],al
     e42:	80 7d f3 00          	cmp    BYTE PTR [ebp-0xd],0x0
     e46:	74 3c                	je     0xe84
     e48:	0f b6 05 10 e0 00 00 	movzx  eax,BYTE PTR ds:0xe010
     e4f:	0f b6 d8             	movzx  ebx,al
     e52:	8b 0d 0c e0 00 00    	mov    ecx,DWORD PTR ds:0xe00c
     e58:	8b 15 8c d0 00 00    	mov    edx,DWORD PTR ds:0xd08c
     e5e:	0f be 45 f3          	movsx  eax,BYTE PTR [ebp-0xd]
     e62:	53                   	push   ebx
     e63:	51                   	push   ecx
     e64:	52                   	push   edx
     e65:	50                   	push   eax
     e66:	e8 62 00 00 00       	call   0xecd
     e6b:	83 c4 10             	add    esp,0x10
     e6e:	66 89 45 f0          	mov    WORD PTR [ebp-0x10],ax
     e72:	0f b7 45 f0          	movzx  eax,WORD PTR [ebp-0x10]
     e76:	83 ec 0c             	sub    esp,0xc
     e79:	50                   	push   eax
     e7a:	e8 b7 fe ff ff       	call   0xd36
     e7f:	83 c4 10             	add    esp,0x10
     e82:	eb a8                	jmp    0xe2c
     e84:	90                   	nop
     e85:	90                   	nop
     e86:	8b 5d fc             	mov    ebx,DWORD PTR [ebp-0x4]
     e89:	c9                   	leave
     e8a:	c3                   	ret
     e8b:	55                   	push   ebp
     e8c:	89 e5                	mov    ebp,esp
     e8e:	83 ec 18             	sub    esp,0x18
     e91:	c7 45 f4 00 00 00 00 	mov    DWORD PTR [ebp-0xc],0x0
     e98:	8b 45 f4             	mov    eax,DWORD PTR [ebp-0xc]
     e9b:	8d 50 01             	lea    edx,[eax+0x1]
     e9e:	89 55 f4             	mov    DWORD PTR [ebp-0xc],edx
     ea1:	8d 14 00             	lea    edx,[eax+eax*1]
     ea4:	8b 45 08             	mov    eax,DWORD PTR [ebp+0x8]
     ea7:	01 d0                	add    eax,edx
     ea9:	0f b7 00             	movzx  eax,WORD PTR [eax]
     eac:	66 89 45 f2          	mov    WORD PTR [ebp-0xe],ax
     eb0:	66 83 7d f2 00       	cmp    WORD PTR [ebp-0xe],0x0
     eb5:	74 12                	je     0xec9
     eb7:	0f b7 45 f2          	movzx  eax,WORD PTR [ebp-0xe]
     ebb:	83 ec 0c             	sub    esp,0xc
     ebe:	50                   	push   eax
     ebf:	e8 72 fe ff ff       	call   0xd36
     ec4:	83 c4 10             	add    esp,0x10
     ec7:	eb cf                	jmp    0xe98
     ec9:	90                   	nop
     eca:	90                   	nop
     ecb:	c9                   	leave
     ecc:	c3                   	ret
     ecd:	55                   	push   ebp
     ece:	89 e5                	mov    ebp,esp
     ed0:	83 ec 18             	sub    esp,0x18
     ed3:	8b 55 08             	mov    edx,DWORD PTR [ebp+0x8]
     ed6:	8b 45 14             	mov    eax,DWORD PTR [ebp+0x14]
     ed9:	88 55 ec             	mov    BYTE PTR [ebp-0x14],dl
     edc:	88 45 e8             	mov    BYTE PTR [ebp-0x18],al
     edf:	66 0f be 45 ec       	movsx  ax,BYTE PTR [ebp-0x14]
     ee4:	66 89 45 fe          	mov    WORD PTR [ebp-0x2],ax
     ee8:	8b 45 0c             	mov    eax,DWORD PTR [ebp+0xc]
     eeb:	c1 e0 08             	shl    eax,0x8
     eee:	66 25 00 0f          	and    ax,0xf00
     ef2:	66 89 45 fc          	mov    WORD PTR [ebp-0x4],ax
     ef6:	8b 45 10             	mov    eax,DWORD PTR [ebp+0x10]
     ef9:	c1 e0 0c             	shl    eax,0xc
     efc:	66 25 00 70          	and    ax,0x7000
     f00:	66 89 45 fa          	mov    WORD PTR [ebp-0x6],ax
     f04:	0f b6 45 e8          	movzx  eax,BYTE PTR [ebp-0x18]
     f08:	c1 e0 0f             	shl    eax,0xf
     f0b:	66 89 45 f8          	mov    WORD PTR [ebp-0x8],ax
     f0f:	0f b7 45 fe          	movzx  eax,WORD PTR [ebp-0x2]
     f13:	66 0b 45 fc          	or     ax,WORD PTR [ebp-0x4]
     f17:	66 0b 45 fa          	or     ax,WORD PTR [ebp-0x6]
     f1b:	66 0b 45 f8          	or     ax,WORD PTR [ebp-0x8]
     f1f:	c9                   	leave
     f20:	c3                   	ret
     f21:	55                   	push   ebp
     f22:	89 e5                	mov    ebp,esp
     f24:	83 ec 28             	sub    esp,0x28
     f27:	8b 55 08             	mov    edx,DWORD PTR [ebp+0x8]
     f2a:	8b 45 0c             	mov    eax,DWORD PTR [ebp+0xc]
     f2d:	88 55 e4             	mov    BYTE PTR [ebp-0x1c],dl
     f30:	88 45 e0             	mov    BYTE PTR [ebp-0x20],al
     f33:	0f b6 55 e0          	movzx  edx,BYTE PTR [ebp-0x20]
     f37:	89 d0                	mov    eax,edx
     f39:	c1 e0 02             	shl    eax,0x2
     f3c:	01 d0                	add    eax,edx
     f3e:	c1 e0 04             	shl    eax,0x4
     f41:	89 c2                	mov    edx,eax
     f43:	0f b6 45 e4          	movzx  eax,BYTE PTR [ebp-0x1c]
     f47:	01 d0                	add    eax,edx
     f49:	66 89 45 f6          	mov    WORD PTR [ebp-0xa],ax
     f4d:	a1 00 e0 00 00       	mov    eax,ds:0xe000
     f52:	a3 08 e0 00 00       	mov    ds:0xe008,eax
     f57:	a1 08 e0 00 00       	mov    eax,ds:0xe008
     f5c:	0f b7 55 f6          	movzx  edx,WORD PTR [ebp-0xa]
     f60:	01 d2                	add    edx,edx
     f62:	01 d0                	add    eax,edx
     f64:	a3 08 e0 00 00       	mov    ds:0xe008,eax
     f69:	e8 55 fd ff ff       	call   0xcc3
     f6e:	90                   	nop
     f6f:	c9                   	leave
     f70:	c3                   	ret
     f71:	55                   	push   ebp
     f72:	89 e5                	mov    ebp,esp
     f74:	83 ec 10             	sub    esp,0x10
     f77:	a1 08 e0 00 00       	mov    eax,ds:0xe008
     f7c:	89 c2                	mov    edx,eax
     f7e:	a1 00 e0 00 00       	mov    eax,ds:0xe000
     f83:	29 c2                	sub    edx,eax
     f85:	89 d0                	mov    eax,edx
     f87:	d1 e8                	shr    eax,1
     f89:	89 45 fc             	mov    DWORD PTR [ebp-0x4],eax
     f8c:	8b 4d fc             	mov    ecx,DWORD PTR [ebp-0x4]
     f8f:	ba cd cc cc cc       	mov    edx,0xcccccccd
     f94:	89 c8                	mov    eax,ecx
     f96:	f7 e2                	mul    edx
     f98:	c1 ea 06             	shr    edx,0x6
     f9b:	89 d0                	mov    eax,edx
     f9d:	c1 e0 02             	shl    eax,0x2
     fa0:	01 d0                	add    eax,edx
     fa2:	c1 e0 04             	shl    eax,0x4
     fa5:	29 c1                	sub    ecx,eax
     fa7:	89 ca                	mov    edx,ecx
     fa9:	89 d0                	mov    eax,edx
     fab:	c9                   	leave
     fac:	c3                   	ret
     fad:	55                   	push   ebp
     fae:	89 e5                	mov    ebp,esp
     fb0:	83 ec 10             	sub    esp,0x10
     fb3:	a1 08 e0 00 00       	mov    eax,ds:0xe008
     fb8:	89 c2                	mov    edx,eax
     fba:	a1 00 e0 00 00       	mov    eax,ds:0xe000
     fbf:	29 c2                	sub    edx,eax
     fc1:	89 d0                	mov    eax,edx
     fc3:	d1 e8                	shr    eax,1
     fc5:	89 45 fc             	mov    DWORD PTR [ebp-0x4],eax
     fc8:	8b 45 fc             	mov    eax,DWORD PTR [ebp-0x4]
     fcb:	ba cd cc cc cc       	mov    edx,0xcccccccd
     fd0:	f7 e2                	mul    edx
     fd2:	89 d0                	mov    eax,edx
     fd4:	c1 e8 06             	shr    eax,0x6
     fd7:	c9                   	leave
     fd8:	c3                   	ret
     fd9:	55                   	push   ebp
     fda:	89 e5                	mov    ebp,esp
     fdc:	83 ec 08             	sub    esp,0x8
     fdf:	e8 c9 ff ff ff       	call   0xfad
     fe4:	83 c0 01             	add    eax,0x1
     fe7:	0f b6 c0             	movzx  eax,al
     fea:	83 ec 08             	sub    esp,0x8
     fed:	50                   	push   eax
     fee:	6a 00                	push   0x0
     ff0:	e8 2c ff ff ff       	call   0xf21
     ff5:	83 c4 10             	add    esp,0x10
     ff8:	83 ec 08             	sub    esp,0x8
     ffb:	6a 0a                	push   0xa
     ffd:	68 e9 00 00 00       	push   0xe9
    1002:	e8 96 2b 00 00       	call   0x3b9d
    1007:	83 c4 10             	add    esp,0x10
    100a:	83 ec 08             	sub    esp,0x8
    100d:	6a 0d                	push   0xd
    100f:	68 e9 00 00 00       	push   0xe9
    1014:	e8 84 2b 00 00       	call   0x3b9d
    1019:	83 c4 10             	add    esp,0x10
    101c:	90                   	nop
    101d:	c9                   	leave
    101e:	c3                   	ret
    101f:	55                   	push   ebp
    1020:	89 e5                	mov    ebp,esp
    1022:	8b 45 08             	mov    eax,DWORD PTR [ebp+0x8]
    1025:	a3 8c d0 00 00       	mov    ds:0xd08c,eax
    102a:	90                   	nop
    102b:	5d                   	pop    ebp
    102c:	c3                   	ret
    102d:	55                   	push   ebp
    102e:	89 e5                	mov    ebp,esp
    1030:	8b 45 08             	mov    eax,DWORD PTR [ebp+0x8]
    1033:	a3 0c e0 00 00       	mov    ds:0xe00c,eax
    1038:	90                   	nop
    1039:	5d                   	pop    ebp
    103a:	c3                   	ret
    103b:	55                   	push   ebp
    103c:	89 e5                	mov    ebp,esp
    103e:	83 ec 04             	sub    esp,0x4
    1041:	8b 45 08             	mov    eax,DWORD PTR [ebp+0x8]
    1044:	88 45 fc             	mov    BYTE PTR [ebp-0x4],al
    1047:	0f b6 45 fc          	movzx  eax,BYTE PTR [ebp-0x4]
    104b:	a2 10 e0 00 00       	mov    ds:0xe010,al
    1050:	90                   	nop
    1051:	c9                   	leave
    1052:	c3                   	ret
    1053:	55                   	push   ebp
    1054:	89 e5                	mov    ebp,esp
    1056:	83 ec 18             	sub    esp,0x18
    1059:	a1 00 e0 00 00       	mov    eax,ds:0xe000
    105e:	a3 08 e0 00 00       	mov    ds:0xe008,eax
    1063:	0f b6 05 10 e0 00 00 	movzx  eax,BYTE PTR ds:0xe010
    106a:	0f b6 c8             	movzx  ecx,al
    106d:	8b 15 0c e0 00 00    	mov    edx,DWORD PTR ds:0xe00c
    1073:	a1 8c d0 00 00       	mov    eax,ds:0xd08c
    1078:	51                   	push   ecx
    1079:	52                   	push   edx
    107a:	50                   	push   eax
    107b:	6a 20                	push   0x20
    107d:	e8 4b fe ff ff       	call   0xecd
    1082:	83 c4 10             	add    esp,0x10
    1085:	66 89 45 f6          	mov    WORD PTR [ebp-0xa],ax
    1089:	eb 10                	jmp    0x109b
    108b:	0f b7 45 f6          	movzx  eax,WORD PTR [ebp-0xa]
    108f:	83 ec 0c             	sub    esp,0xc
    1092:	50                   	push   eax
    1093:	e8 9e fc ff ff       	call   0xd36
    1098:	83 c4 10             	add    esp,0x10
    109b:	a1 08 e0 00 00       	mov    eax,ds:0xe008
    10a0:	89 c2                	mov    edx,eax
    10a2:	a1 04 e0 00 00       	mov    eax,ds:0xe004
    10a7:	39 c2                	cmp    edx,eax
    10a9:	72 e0                	jb     0x108b
    10ab:	a1 00 e0 00 00       	mov    eax,ds:0xe000
    10b0:	a3 08 e0 00 00       	mov    ds:0xe008,eax
    10b5:	90                   	nop
    10b6:	c9                   	leave
    10b7:	c3                   	ret
    10b8:	55                   	push   ebp
    10b9:	89 e5                	mov    ebp,esp
    10bb:	83 ec 08             	sub    esp,0x8
    10be:	c7 05 8c d0 00 00 0f 	mov    DWORD PTR ds:0xd08c,0xf
    10c5:	00 00 00 
    10c8:	c7 05 0c e0 00 00 00 	mov    DWORD PTR ds:0xe00c,0x0
    10cf:	00 00 00 
    10d2:	c6 05 10 e0 00 00 00 	mov    BYTE PTR ds:0xe010,0x0
    10d9:	e8 75 ff ff ff       	call   0x1053
    10de:	90                   	nop
    10df:	c9                   	leave
    10e0:	c3                   	ret
    10e1:	55                   	push   ebp
    10e2:	89 e5                	mov    ebp,esp
    10e4:	57                   	push   edi
    10e5:	56                   	push   esi
    10e6:	53                   	push   ebx
    10e7:	83 ec 1c             	sub    esp,0x1c
    10ea:	8b 45 08             	mov    eax,DWORD PTR [ebp+0x8]
    10ed:	89 45 e8             	mov    DWORD PTR [ebp-0x18],eax
    10f0:	8b 45 0c             	mov    eax,DWORD PTR [ebp+0xc]
    10f3:	89 45 ec             	mov    DWORD PTR [ebp-0x14],eax
    10f6:	8b 45 10             	mov    eax,DWORD PTR [ebp+0x10]
    10f9:	89 45 e0             	mov    DWORD PTR [ebp-0x20],eax
    10fc:	8b 45 14             	mov    eax,DWORD PTR [ebp+0x14]
    10ff:	89 45 e4             	mov    DWORD PTR [ebp-0x1c],eax
    1102:	8b 4d e0             	mov    ecx,DWORD PTR [ebp-0x20]
    1105:	8b 5d e4             	mov    ebx,DWORD PTR [ebp-0x1c]
    1108:	8b 45 e8             	mov    eax,DWORD PTR [ebp-0x18]
    110b:	8b 55 ec             	mov    edx,DWORD PTR [ebp-0x14]
    110e:	39 c8                	cmp    eax,ecx
    1110:	89 d6                	mov    esi,edx
    1112:	19 de                	sbb    esi,ebx
    1114:	89 c7                	mov    edi,eax
    1116:	0f 43 f9             	cmovae edi,ecx
    1119:	89 7d d8             	mov    DWORD PTR [ebp-0x28],edi
    111c:	89 d0                	mov    eax,edx
    111e:	0f 43 c3             	cmovae eax,ebx
    1121:	89 45 dc             	mov    DWORD PTR [ebp-0x24],eax
    1124:	8b 45 d8             	mov    eax,DWORD PTR [ebp-0x28]
    1127:	8b 55 dc             	mov    edx,DWORD PTR [ebp-0x24]
    112a:	83 c4 1c             	add    esp,0x1c
    112d:	5b                   	pop    ebx
    112e:	5e                   	pop    esi
    112f:	5f                   	pop    edi
    1130:	5d                   	pop    ebp
    1131:	c3                   	ret
    1132:	55                   	push   ebp
    1133:	89 e5                	mov    ebp,esp
    1135:	83 ec 10             	sub    esp,0x10
    1138:	8b 45 08             	mov    eax,DWORD PTR [ebp+0x8]
    113b:	89 45 f8             	mov    DWORD PTR [ebp-0x8],eax
    113e:	8b 45 0c             	mov    eax,DWORD PTR [ebp+0xc]
    1141:	89 45 fc             	mov    DWORD PTR [ebp-0x4],eax
    1144:	8b 45 10             	mov    eax,DWORD PTR [ebp+0x10]
    1147:	89 45 f0             	mov    DWORD PTR [ebp-0x10],eax
    114a:	8b 45 14             	mov    eax,DWORD PTR [ebp+0x14]
    114d:	89 45 f4             	mov    DWORD PTR [ebp-0xc],eax
    1150:	a1 18 f0 00 00       	mov    eax,ds:0xf018
    1155:	83 c0 01             	add    eax,0x1
    1158:	c1 e0 04             	shl    eax,0x4
    115b:	8d 88 00 f0 00 00    	lea    ecx,[eax+0xf000]
    1161:	8b 45 f8             	mov    eax,DWORD PTR [ebp-0x8]
    1164:	8b 55 fc             	mov    edx,DWORD PTR [ebp-0x4]
    1167:	89 41 0c             	mov    DWORD PTR [ecx+0xc],eax
    116a:	89 51 10             	mov    DWORD PTR [ecx+0x10],edx
    116d:	a1 18 f0 00 00       	mov    eax,ds:0xf018
    1172:	83 c0 01             	add    eax,0x1
    1175:	c1 e0 04             	shl    eax,0x4
    1178:	8d 88 00 f0 00 00    	lea    ecx,[eax+0xf000]
    117e:	8b 45 f0             	mov    eax,DWORD PTR [ebp-0x10]
    1181:	8b 55 f4             	mov    edx,DWORD PTR [ebp-0xc]
    1184:	89 41 14             	mov    DWORD PTR [ecx+0x14],eax
    1187:	89 51 18             	mov    DWORD PTR [ecx+0x18],edx
    118a:	a1 18 f0 00 00       	mov    eax,ds:0xf018
    118f:	83 c0 01             	add    eax,0x1
    1192:	a3 18 f0 00 00       	mov    ds:0xf018,eax
    1197:	90                   	nop
    1198:	c9                   	leave
    1199:	c3                   	ret
    119a:	55                   	push   ebp
    119b:	89 e5                	mov    ebp,esp
    119d:	83 ec 28             	sub    esp,0x28
    11a0:	8b 55 10             	mov    edx,DWORD PTR [ebp+0x10]
    11a3:	8b 45 08             	mov    eax,DWORD PTR [ebp+0x8]
    11a6:	89 45 e0             	mov    DWORD PTR [ebp-0x20],eax
    11a9:	8b 45 0c             	mov    eax,DWORD PTR [ebp+0xc]
    11ac:	89 45 e4             	mov    DWORD PTR [ebp-0x1c],eax
    11af:	89 d0                	mov    eax,edx
    11b1:	88 45 dc             	mov    BYTE PTR [ebp-0x24],al
    11b4:	80 7d dc 00          	cmp    BYTE PTR [ebp-0x24],0x0
    11b8:	74 52                	je     0x120c
    11ba:	6a 00                	push   0x0
    11bc:	68 00 10 00 00       	push   0x1000
    11c1:	ff 75 e4             	push   DWORD PTR [ebp-0x1c]
    11c4:	ff 75 e0             	push   DWORD PTR [ebp-0x20]
    11c7:	e8 2f f9 ff ff       	call   0xafb
    11cc:	83 c4 10             	add    esp,0x10
    11cf:	0f a4 c2 0c          	shld   edx,eax,0xc
    11d3:	c1 e0 0c             	shl    eax,0xc
    11d6:	89 45 f0             	mov    DWORD PTR [ebp-0x10],eax
    11d9:	89 55 f4             	mov    DWORD PTR [ebp-0xc],edx
    11dc:	6a 00                	push   0x0
    11de:	68 00 10 00 00       	push   0x1000
    11e3:	ff 75 e4             	push   DWORD PTR [ebp-0x1c]
    11e6:	ff 75 e0             	push   DWORD PTR [ebp-0x20]
    11e9:	e8 0c fa ff ff       	call   0xbfa
    11ee:	83 c4 10             	add    esp,0x10
    11f1:	89 c1                	mov    ecx,eax
    11f3:	89 c8                	mov    eax,ecx
    11f5:	09 d0                	or     eax,edx
    11f7:	74 0b                	je     0x1204
    11f9:	81 45 f0 00 10 00 00 	add    DWORD PTR [ebp-0x10],0x1000
    1200:	83 55 f4 00          	adc    DWORD PTR [ebp-0xc],0x0
    1204:	8b 45 f0             	mov    eax,DWORD PTR [ebp-0x10]
    1207:	8b 55 f4             	mov    edx,DWORD PTR [ebp-0xc]
    120a:	eb 28                	jmp    0x1234
    120c:	6a 00                	push   0x0
    120e:	68 00 10 00 00       	push   0x1000
    1213:	ff 75 e4             	push   DWORD PTR [ebp-0x1c]
    1216:	ff 75 e0             	push   DWORD PTR [ebp-0x20]
    1219:	e8 dd f8 ff ff       	call   0xafb
    121e:	83 c4 10             	add    esp,0x10
    1221:	0f a4 c2 0c          	shld   edx,eax,0xc
    1225:	c1 e0 0c             	shl    eax,0xc
    1228:	89 45 f0             	mov    DWORD PTR [ebp-0x10],eax
    122b:	89 55 f4             	mov    DWORD PTR [ebp-0xc],edx
    122e:	8b 45 f0             	mov    eax,DWORD PTR [ebp-0x10]
    1231:	8b 55 f4             	mov    edx,DWORD PTR [ebp-0xc]
    1234:	c9                   	leave
    1235:	c3                   	ret
    1236:	55                   	push   ebp
    1237:	89 e5                	mov    ebp,esp
    1239:	53                   	push   ebx
    123a:	83 ec 44             	sub    esp,0x44
    123d:	c7 45 f0 00 05 00 00 	mov    DWORD PTR [ebp-0x10],0x500
    1244:	83 ec 0c             	sub    esp,0xc
    1247:	68 74 ce 00 00       	push   0xce74
    124c:	e8 36 f8 ff ff       	call   0xa87
    1251:	83 c4 10             	add    esp,0x10
    1254:	c7 45 f4 00 00 00 00 	mov    DWORD PTR [ebp-0xc],0x0
    125b:	e9 12 01 00 00       	jmp    0x1372
    1260:	8b 4d f0             	mov    ecx,DWORD PTR [ebp-0x10]
    1263:	8b 55 f4             	mov    edx,DWORD PTR [ebp-0xc]
    1266:	89 d0                	mov    eax,edx
    1268:	01 c0                	add    eax,eax
    126a:	01 d0                	add    eax,edx
    126c:	c1 e0 03             	shl    eax,0x3
    126f:	01 c8                	add    eax,ecx
    1271:	8b 50 02             	mov    edx,DWORD PTR [eax+0x2]
    1274:	89 55 c4             	mov    DWORD PTR [ebp-0x3c],edx
    1277:	8b 50 06             	mov    edx,DWORD PTR [eax+0x6]
    127a:	89 55 c8             	mov    DWORD PTR [ebp-0x38],edx
    127d:	8b 50 0a             	mov    edx,DWORD PTR [eax+0xa]
    1280:	89 55 cc             	mov    DWORD PTR [ebp-0x34],edx
    1283:	8b 50 0e             	mov    edx,DWORD PTR [eax+0xe]
    1286:	89 55 d0             	mov    DWORD PTR [ebp-0x30],edx
    1289:	8b 50 12             	mov    edx,DWORD PTR [eax+0x12]
    128c:	89 55 d4             	mov    DWORD PTR [ebp-0x2c],edx
    128f:	8b 40 16             	mov    eax,DWORD PTR [eax+0x16]
    1292:	89 45 d8             	mov    DWORD PTR [ebp-0x28],eax
    1295:	8b 45 d4             	mov    eax,DWORD PTR [ebp-0x2c]
    1298:	83 f8 01             	cmp    eax,0x1
    129b:	0f 85 cc 00 00 00    	jne    0x136d
    12a1:	8b 45 c4             	mov    eax,DWORD PTR [ebp-0x3c]
    12a4:	8b 55 c8             	mov    edx,DWORD PTR [ebp-0x38]
    12a7:	83 ec 04             	sub    esp,0x4
    12aa:	6a 01                	push   0x1
    12ac:	52                   	push   edx
    12ad:	50                   	push   eax
    12ae:	e8 e7 fe ff ff       	call   0x119a
    12b3:	83 c4 10             	add    esp,0x10
    12b6:	89 45 e8             	mov    DWORD PTR [ebp-0x18],eax
    12b9:	89 55 ec             	mov    DWORD PTR [ebp-0x14],edx
    12bc:	8b 4d c4             	mov    ecx,DWORD PTR [ebp-0x3c]
    12bf:	8b 5d c8             	mov    ebx,DWORD PTR [ebp-0x38]
    12c2:	8b 45 cc             	mov    eax,DWORD PTR [ebp-0x34]
    12c5:	8b 55 d0             	mov    edx,DWORD PTR [ebp-0x30]
    12c8:	01 c8                	add    eax,ecx
    12ca:	11 da                	adc    edx,ebx
    12cc:	83 ec 04             	sub    esp,0x4
    12cf:	6a 00                	push   0x0
    12d1:	52                   	push   edx
    12d2:	50                   	push   eax
    12d3:	e8 c2 fe ff ff       	call   0x119a
    12d8:	83 c4 10             	add    esp,0x10
    12db:	89 45 e0             	mov    DWORD PTR [ebp-0x20],eax
    12de:	89 55 e4             	mov    DWORD PTR [ebp-0x1c],edx
    12e1:	ff 75 e4             	push   DWORD PTR [ebp-0x1c]
    12e4:	ff 75 e0             	push   DWORD PTR [ebp-0x20]
    12e7:	ff 75 ec             	push   DWORD PTR [ebp-0x14]
    12ea:	ff 75 e8             	push   DWORD PTR [ebp-0x18]
    12ed:	e8 40 fe ff ff       	call   0x1132
    12f2:	83 c4 10             	add    esp,0x10
    12f5:	c7 45 dc 9c ce 00 00 	mov    DWORD PTR [ebp-0x24],0xce9c
    12fc:	83 ec 08             	sub    esp,0x8
    12ff:	ff 75 ec             	push   DWORD PTR [ebp-0x14]
    1302:	ff 75 e8             	push   DWORD PTR [ebp-0x18]
    1305:	e8 96 f5 ff ff       	call   0x8a0
    130a:	83 c4 10             	add    esp,0x10
    130d:	83 ec 08             	sub    esp,0x8
    1310:	50                   	push   eax
    1311:	ff 75 dc             	push   DWORD PTR [ebp-0x24]
    1314:	e8 7f 23 00 00       	call   0x3698
    1319:	83 c4 10             	add    esp,0x10
    131c:	89 45 dc             	mov    DWORD PTR [ebp-0x24],eax
    131f:	83 ec 08             	sub    esp,0x8
    1322:	68 a1 ce 00 00       	push   0xcea1
    1327:	ff 75 dc             	push   DWORD PTR [ebp-0x24]
    132a:	e8 69 23 00 00       	call   0x3698
    132f:	83 c4 10             	add    esp,0x10
    1332:	89 45 dc             	mov    DWORD PTR [ebp-0x24],eax
    1335:	83 ec 08             	sub    esp,0x8
    1338:	ff 75 e4             	push   DWORD PTR [ebp-0x1c]
    133b:	ff 75 e0             	push   DWORD PTR [ebp-0x20]
    133e:	e8 5d f5 ff ff       	call   0x8a0
    1343:	83 c4 10             	add    esp,0x10
    1346:	83 ec 08             	sub    esp,0x8
    1349:	50                   	push   eax
    134a:	ff 75 dc             	push   DWORD PTR [ebp-0x24]
    134d:	e8 46 23 00 00       	call   0x3698
    1352:	83 c4 10             	add    esp,0x10
    1355:	89 45 dc             	mov    DWORD PTR [ebp-0x24],eax
    1358:	83 ec 0c             	sub    esp,0xc
    135b:	ff 75 dc             	push   DWORD PTR [ebp-0x24]
    135e:	e8 f8 f5 ff ff       	call   0x95b
    1363:	83 c4 10             	add    esp,0x10
    1366:	e8 6f 14 00 00       	call   0x27da
    136b:	eb 01                	jmp    0x136e
    136d:	90                   	nop
    136e:	83 45 f4 01          	add    DWORD PTR [ebp-0xc],0x1
    1372:	8b 45 f0             	mov    eax,DWORD PTR [ebp-0x10]
    1375:	0f b7 00             	movzx  eax,WORD PTR [eax]
    1378:	0f b7 c0             	movzx  eax,ax
    137b:	39 45 f4             	cmp    DWORD PTR [ebp-0xc],eax
    137e:	0f 82 dc fe ff ff    	jb     0x1260
    1384:	90                   	nop
    1385:	90                   	nop
    1386:	8b 5d fc             	mov    ebx,DWORD PTR [ebp-0x4]
    1389:	c9                   	leave
    138a:	c3                   	ret
    138b:	55                   	push   ebp
    138c:	89 e5                	mov    ebp,esp
    138e:	83 ec 18             	sub    esp,0x18
    1391:	c7 45 f4 00 00 00 00 	mov    DWORD PTR [ebp-0xc],0x0
    1398:	eb 28                	jmp    0x13c2
    139a:	8b 45 f4             	mov    eax,DWORD PTR [ebp-0xc]
    139d:	c1 e0 0c             	shl    eax,0xc
    13a0:	05 00 00 01 00       	add    eax,0x10000
    13a5:	89 45 f0             	mov    DWORD PTR [ebp-0x10],eax
    13a8:	8b 45 f0             	mov    eax,DWORD PTR [ebp-0x10]
    13ab:	83 ec 04             	sub    esp,0x4
    13ae:	6a 00                	push   0x0
    13b0:	68 00 10 00 00       	push   0x1000
    13b5:	50                   	push   eax
    13b6:	e8 e3 26 00 00       	call   0x3a9e
    13bb:	83 c4 10             	add    esp,0x10
    13be:	83 45 f4 01          	add    DWORD PTR [ebp-0xc],0x1
    13c2:	83 7d f4 1f          	cmp    DWORD PTR [ebp-0xc],0x1f
    13c6:	76 d2                	jbe    0x139a
    13c8:	90                   	nop
    13c9:	90                   	nop
    13ca:	c9                   	leave
    13cb:	c3                   	ret
    13cc:	55                   	push   ebp
    13cd:	89 e5                	mov    ebp,esp
    13cf:	53                   	push   ebx
    13d0:	83 ec 34             	sub    esp,0x34
    13d3:	8b 45 0c             	mov    eax,DWORD PTR [ebp+0xc]
    13d6:	8b 40 10             	mov    eax,DWORD PTR [eax+0x10]
    13d9:	83 f8 01             	cmp    eax,0x1
    13dc:	75 61                	jne    0x143f
    13de:	8b 45 0c             	mov    eax,DWORD PTR [ebp+0xc]
    13e1:	8b 50 04             	mov    edx,DWORD PTR [eax+0x4]
    13e4:	8b 00                	mov    eax,DWORD PTR [eax]
    13e6:	83 ec 04             	sub    esp,0x4
    13e9:	6a 01                	push   0x1
    13eb:	52                   	push   edx
    13ec:	50                   	push   eax
    13ed:	e8 a8 fd ff ff       	call   0x119a
    13f2:	83 c4 10             	add    esp,0x10
    13f5:	89 45 e0             	mov    DWORD PTR [ebp-0x20],eax
    13f8:	89 55 e4             	mov    DWORD PTR [ebp-0x1c],edx
    13fb:	8b 45 0c             	mov    eax,DWORD PTR [ebp+0xc]
    13fe:	8b 08                	mov    ecx,DWORD PTR [eax]
    1400:	8b 58 04             	mov    ebx,DWORD PTR [eax+0x4]
    1403:	8b 45 0c             	mov    eax,DWORD PTR [ebp+0xc]
    1406:	8b 50 0c             	mov    edx,DWORD PTR [eax+0xc]
    1409:	8b 40 08             	mov    eax,DWORD PTR [eax+0x8]
    140c:	01 c8                	add    eax,ecx
    140e:	11 da                	adc    edx,ebx
    1410:	83 ec 04             	sub    esp,0x4
    1413:	6a 00                	push   0x0
    1415:	52                   	push   edx
    1416:	50                   	push   eax
    1417:	e8 7e fd ff ff       	call   0x119a
    141c:	83 c4 10             	add    esp,0x10
    141f:	89 45 d8             	mov    DWORD PTR [ebp-0x28],eax
    1422:	89 55 dc             	mov    DWORD PTR [ebp-0x24],edx
    1425:	8b 45 d8             	mov    eax,DWORD PTR [ebp-0x28]
    1428:	8b 55 dc             	mov    edx,DWORD PTR [ebp-0x24]
    142b:	89 45 d0             	mov    DWORD PTR [ebp-0x30],eax
    142e:	89 55 d4             	mov    DWORD PTR [ebp-0x2c],edx
    1431:	8b 45 e0             	mov    eax,DWORD PTR [ebp-0x20]
    1434:	8b 55 e4             	mov    edx,DWORD PTR [ebp-0x1c]
    1437:	89 45 c8             	mov    DWORD PTR [ebp-0x38],eax
    143a:	89 55 cc             	mov    DWORD PTR [ebp-0x34],edx
    143d:	eb 5f                	jmp    0x149e
    143f:	8b 45 0c             	mov    eax,DWORD PTR [ebp+0xc]
    1442:	8b 50 04             	mov    edx,DWORD PTR [eax+0x4]
    1445:	8b 00                	mov    eax,DWORD PTR [eax]
    1447:	83 ec 04             	sub    esp,0x4
    144a:	6a 00                	push   0x0
    144c:	52                   	push   edx
    144d:	50                   	push   eax
    144e:	e8 47 fd ff ff       	call   0x119a
    1453:	83 c4 10             	add    esp,0x10
    1456:	89 45 f0             	mov    DWORD PTR [ebp-0x10],eax
    1459:	89 55 f4             	mov    DWORD PTR [ebp-0xc],edx
    145c:	8b 45 0c             	mov    eax,DWORD PTR [ebp+0xc]
    145f:	8b 08                	mov    ecx,DWORD PTR [eax]
    1461:	8b 58 04             	mov    ebx,DWORD PTR [eax+0x4]
    1464:	8b 45 0c             	mov    eax,DWORD PTR [ebp+0xc]
    1467:	8b 50 0c             	mov    edx,DWORD PTR [eax+0xc]
    146a:	8b 40 08             	mov    eax,DWORD PTR [eax+0x8]
    146d:	01 c8                	add    eax,ecx
    146f:	11 da                	adc    edx,ebx
    1471:	83 ec 04             	sub    esp,0x4
    1474:	6a 01                	push   0x1
    1476:	52                   	push   edx
    1477:	50                   	push   eax
    1478:	e8 1d fd ff ff       	call   0x119a
    147d:	83 c4 10             	add    esp,0x10
    1480:	89 45 e8             	mov    DWORD PTR [ebp-0x18],eax
    1483:	89 55 ec             	mov    DWORD PTR [ebp-0x14],edx
    1486:	8b 45 e8             	mov    eax,DWORD PTR [ebp-0x18]
    1489:	8b 55 ec             	mov    edx,DWORD PTR [ebp-0x14]
    148c:	89 45 d0             	mov    DWORD PTR [ebp-0x30],eax
    148f:	89 55 d4             	mov    DWORD PTR [ebp-0x2c],edx
    1492:	8b 45 f0             	mov    eax,DWORD PTR [ebp-0x10]
    1495:	8b 55 f4             	mov    edx,DWORD PTR [ebp-0xc]
    1498:	89 45 c8             	mov    DWORD PTR [ebp-0x38],eax
    149b:	89 55 cc             	mov    DWORD PTR [ebp-0x34],edx
    149e:	8b 45 08             	mov    eax,DWORD PTR [ebp+0x8]
    14a1:	8b 55 c8             	mov    edx,DWORD PTR [ebp-0x38]
    14a4:	89 10                	mov    DWORD PTR [eax],edx
    14a6:	8b 55 cc             	mov    edx,DWORD PTR [ebp-0x34]
    14a9:	89 50 04             	mov    DWORD PTR [eax+0x4],edx
    14ac:	8b 55 d0             	mov    edx,DWORD PTR [ebp-0x30]
    14af:	89 50 08             	mov    DWORD PTR [eax+0x8],edx
    14b2:	8b 55 d4             	mov    edx,DWORD PTR [ebp-0x2c]
    14b5:	89 50 0c             	mov    DWORD PTR [eax+0xc],edx
    14b8:	8b 45 08             	mov    eax,DWORD PTR [ebp+0x8]
    14bb:	8b 5d fc             	mov    ebx,DWORD PTR [ebp-0x4]
    14be:	c9                   	leave
    14bf:	c2 04 00             	ret    0x4
    14c2:	55                   	push   ebp
    14c3:	89 e5                	mov    ebp,esp
    14c5:	83 ec 18             	sub    esp,0x18
    14c8:	a1 90 d0 00 00       	mov    eax,ds:0xd090
    14cd:	83 f8 1f             	cmp    eax,0x1f
    14d0:	76 2d                	jbe    0x14ff
    14d2:	83 ec 0c             	sub    esp,0xc
    14d5:	68 a8 ce 00 00       	push   0xcea8
    14da:	e8 c0 f4 ff ff       	call   0x99f
    14df:	83 c4 10             	add    esp,0x10
    14e2:	83 ec 0c             	sub    esp,0xc
    14e5:	68 dc 05 00 00       	push   0x5dc
    14ea:	e8 36 13 00 00       	call   0x2825
    14ef:	83 c4 10             	add    esp,0x10
    14f2:	83 ec 0c             	sub    esp,0xc
    14f5:	6a 65                	push   0x65
    14f7:	e8 44 26 00 00       	call   0x3b40
    14fc:	83 c4 10             	add    esp,0x10
    14ff:	a1 90 d0 00 00       	mov    eax,ds:0xd090
    1504:	c1 e0 0c             	shl    eax,0xc
    1507:	05 00 00 01 00       	add    eax,0x10000
    150c:	89 45 f4             	mov    DWORD PTR [ebp-0xc],eax
    150f:	a1 90 d0 00 00       	mov    eax,ds:0xd090
    1514:	83 c0 01             	add    eax,0x1
    1517:	a3 90 d0 00 00       	mov    ds:0xd090,eax
    151c:	8b 45 f4             	mov    eax,DWORD PTR [ebp-0xc]
    151f:	c9                   	leave
    1520:	c3                   	ret
    1521:	55                   	push   ebp
    1522:	89 e5                	mov    ebp,esp
    1524:	83 ec 08             	sub    esp,0x8
    1527:	83 ec 0c             	sub    esp,0xc
    152a:	68 dc ce 00 00       	push   0xcedc
    152f:	e8 6b f4 ff ff       	call   0x99f
    1534:	83 c4 10             	add    esp,0x10
    1537:	83 ec 0c             	sub    esp,0xc
    153a:	68 dc 05 00 00       	push   0x5dc
    153f:	e8 e1 12 00 00       	call   0x2825
    1544:	83 c4 10             	add    esp,0x10
    1547:	83 ec 0c             	sub    esp,0xc
    154a:	6a 65                	push   0x65
    154c:	e8 ef 25 00 00       	call   0x3b40
    1551:	83 c4 10             	add    esp,0x10
    1554:	90                   	nop
    1555:	c9                   	leave
    1556:	c3                   	ret
    1557:	55                   	push   ebp
    1558:	89 e5                	mov    ebp,esp
    155a:	83 ec 20             	sub    esp,0x20
    155d:	8b 45 0c             	mov    eax,DWORD PTR [ebp+0xc]
    1560:	89 45 e8             	mov    DWORD PTR [ebp-0x18],eax
    1563:	8b 45 10             	mov    eax,DWORD PTR [ebp+0x10]
    1566:	89 45 ec             	mov    DWORD PTR [ebp-0x14],eax
    1569:	8b 45 14             	mov    eax,DWORD PTR [ebp+0x14]
    156c:	89 45 e0             	mov    DWORD PTR [ebp-0x20],eax
    156f:	8b 45 18             	mov    eax,DWORD PTR [ebp+0x18]
    1572:	89 45 e4             	mov    DWORD PTR [ebp-0x1c],eax
    1575:	8b 45 e8             	mov    eax,DWORD PTR [ebp-0x18]
    1578:	8b 55 ec             	mov    edx,DWORD PTR [ebp-0x14]
    157b:	25 00 f0 ff ff       	and    eax,0xfffff000
    1580:	81 e2 ff ff 0f 00    	and    edx,0xfffff
    1586:	89 45 f8             	mov    DWORD PTR [ebp-0x8],eax
    1589:	89 55 fc             	mov    DWORD PTR [ebp-0x4],edx
    158c:	8b 45 e0             	mov    eax,DWORD PTR [ebp-0x20]
    158f:	8b 55 e4             	mov    edx,DWORD PTR [ebp-0x1c]
    1592:	25 ff 0f 00 00       	and    eax,0xfff
    1597:	ba 00 00 00 00       	mov    edx,0x0
    159c:	89 45 f0             	mov    DWORD PTR [ebp-0x10],eax
    159f:	89 55 f4             	mov    DWORD PTR [ebp-0xc],edx
    15a2:	8b 4d 08             	mov    ecx,DWORD PTR [ebp+0x8]
    15a5:	8b 45 f8             	mov    eax,DWORD PTR [ebp-0x8]
    15a8:	8b 55 fc             	mov    edx,DWORD PTR [ebp-0x4]
    15ab:	0b 45 f0             	or     eax,DWORD PTR [ebp-0x10]
    15ae:	0b 55 f4             	or     edx,DWORD PTR [ebp-0xc]
    15b1:	89 01                	mov    DWORD PTR [ecx],eax
    15b3:	89 51 04             	mov    DWORD PTR [ecx+0x4],edx
    15b6:	90                   	nop
    15b7:	c9                   	leave
    15b8:	c3                   	ret
    15b9:	55                   	push   ebp
    15ba:	89 e5                	mov    ebp,esp
    15bc:	53                   	push   ebx
    15bd:	83 ec 24             	sub    esp,0x24
    15c0:	8b 45 18             	mov    eax,DWORD PTR [ebp+0x18]
    15c3:	89 45 e0             	mov    DWORD PTR [ebp-0x20],eax
    15c6:	8b 45 1c             	mov    eax,DWORD PTR [ebp+0x1c]
    15c9:	89 45 e4             	mov    DWORD PTR [ebp-0x1c],eax
    15cc:	8b 45 20             	mov    eax,DWORD PTR [ebp+0x20]
    15cf:	89 45 d8             	mov    DWORD PTR [ebp-0x28],eax
    15d2:	8b 45 24             	mov    eax,DWORD PTR [ebp+0x24]
    15d5:	89 45 dc             	mov    DWORD PTR [ebp-0x24],eax
    15d8:	8b 45 e0             	mov    eax,DWORD PTR [ebp-0x20]
    15db:	8b 55 e4             	mov    edx,DWORD PTR [ebp-0x1c]
    15de:	89 45 f0             	mov    DWORD PTR [ebp-0x10],eax
    15e1:	89 55 f4             	mov    DWORD PTR [ebp-0xc],edx
    15e4:	eb 62                	jmp    0x1648
    15e6:	8b 45 f0             	mov    eax,DWORD PTR [ebp-0x10]
    15e9:	8b 55 f4             	mov    edx,DWORD PTR [ebp-0xc]
    15ec:	0f ac d0 0c          	shrd   eax,edx,0xc
    15f0:	c1 ea 0c             	shr    edx,0xc
    15f3:	66 25 ff 01          	and    ax,0x1ff
    15f7:	66 89 45 ee          	mov    WORD PTR [ebp-0x12],ax
    15fb:	8b 45 28             	mov    eax,DWORD PTR [ebp+0x28]
    15fe:	89 c2                	mov    edx,eax
    1600:	0f b7 45 ee          	movzx  eax,WORD PTR [ebp-0x12]
    1604:	c1 e0 03             	shl    eax,0x3
    1607:	01 d0                	add    eax,edx
    1609:	89 45 e8             	mov    DWORD PTR [ebp-0x18],eax
    160c:	8b 45 08             	mov    eax,DWORD PTR [ebp+0x8]
    160f:	8b 55 0c             	mov    edx,DWORD PTR [ebp+0xc]
    1612:	8b 4d e8             	mov    ecx,DWORD PTR [ebp-0x18]
    1615:	83 ec 04             	sub    esp,0x4
    1618:	ff 75 dc             	push   DWORD PTR [ebp-0x24]
    161b:	ff 75 d8             	push   DWORD PTR [ebp-0x28]
    161e:	52                   	push   edx
    161f:	50                   	push   eax
    1620:	51                   	push   ecx
    1621:	e8 31 ff ff ff       	call   0x1557
    1626:	83 c4 18             	add    esp,0x18
    1629:	8b 45 08             	mov    eax,DWORD PTR [ebp+0x8]
    162c:	8b 55 0c             	mov    edx,DWORD PTR [ebp+0xc]
    162f:	05 00 10 00 00       	add    eax,0x1000
    1634:	83 d2 00             	adc    edx,0x0
    1637:	89 45 08             	mov    DWORD PTR [ebp+0x8],eax
    163a:	89 55 0c             	mov    DWORD PTR [ebp+0xc],edx
    163d:	81 45 f0 00 10 00 00 	add    DWORD PTR [ebp-0x10],0x1000
    1644:	83 55 f4 00          	adc    DWORD PTR [ebp-0xc],0x0
    1648:	8b 4d 08             	mov    ecx,DWORD PTR [ebp+0x8]
    164b:	8b 5d 0c             	mov    ebx,DWORD PTR [ebp+0xc]
    164e:	8b 45 10             	mov    eax,DWORD PTR [ebp+0x10]
    1651:	8b 55 14             	mov    edx,DWORD PTR [ebp+0x14]
    1654:	39 c1                	cmp    ecx,eax
    1656:	19 d3                	sbb    ebx,edx
    1658:	72 8c                	jb     0x15e6
    165a:	90                   	nop
    165b:	90                   	nop
    165c:	8b 5d fc             	mov    ebx,DWORD PTR [ebp-0x4]
    165f:	c9                   	leave
    1660:	c3                   	ret
    1661:	55                   	push   ebp
    1662:	89 e5                	mov    ebp,esp
    1664:	56                   	push   esi
    1665:	53                   	push   ebx
    1666:	83 ec 60             	sub    esp,0x60
    1669:	8b 45 18             	mov    eax,DWORD PTR [ebp+0x18]
    166c:	89 45 a0             	mov    DWORD PTR [ebp-0x60],eax
    166f:	8b 45 1c             	mov    eax,DWORD PTR [ebp+0x1c]
    1672:	89 45 a4             	mov    DWORD PTR [ebp-0x5c],eax
    1675:	8b 45 20             	mov    eax,DWORD PTR [ebp+0x20]
    1678:	89 45 98             	mov    DWORD PTR [ebp-0x68],eax
    167b:	8b 45 24             	mov    eax,DWORD PTR [ebp+0x24]
    167e:	89 45 9c             	mov    DWORD PTR [ebp-0x64],eax
    1681:	8b 45 a0             	mov    eax,DWORD PTR [ebp-0x60]
    1684:	8b 55 a4             	mov    edx,DWORD PTR [ebp-0x5c]
    1687:	89 45 f0             	mov    DWORD PTR [ebp-0x10],eax
    168a:	89 55 f4             	mov    DWORD PTR [ebp-0xc],edx
    168d:	e9 a6 01 00 00       	jmp    0x1838
    1692:	8b 45 f0             	mov    eax,DWORD PTR [ebp-0x10]
    1695:	8b 55 f4             	mov    edx,DWORD PTR [ebp-0xc]
    1698:	0f ac d0 15          	shrd   eax,edx,0x15
    169c:	c1 ea 15             	shr    edx,0x15
    169f:	66 25 ff 01          	and    ax,0x1ff
    16a3:	66 89 45 ee          	mov    WORD PTR [ebp-0x12],ax
    16a7:	8b 45 28             	mov    eax,DWORD PTR [ebp+0x28]
    16aa:	89 c2                	mov    edx,eax
    16ac:	0f b7 45 ee          	movzx  eax,WORD PTR [ebp-0x12]
    16b0:	c1 e0 03             	shl    eax,0x3
    16b3:	01 d0                	add    eax,edx
    16b5:	89 45 bc             	mov    DWORD PTR [ebp-0x44],eax
    16b8:	8b 45 f0             	mov    eax,DWORD PTR [ebp-0x10]
    16bb:	8b 55 f4             	mov    edx,DWORD PTR [ebp-0xc]
    16be:	25 00 00 e0 ff       	and    eax,0xffe00000
    16c3:	05 00 00 20 00       	add    eax,0x200000
    16c8:	83 d2 00             	adc    edx,0x0
    16cb:	89 45 e0             	mov    DWORD PTR [ebp-0x20],eax
    16ce:	89 55 e4             	mov    DWORD PTR [ebp-0x1c],edx
    16d1:	8b 4d 08             	mov    ecx,DWORD PTR [ebp+0x8]
    16d4:	8b 5d 0c             	mov    ebx,DWORD PTR [ebp+0xc]
    16d7:	8b 45 e0             	mov    eax,DWORD PTR [ebp-0x20]
    16da:	8b 55 e4             	mov    edx,DWORD PTR [ebp-0x1c]
    16dd:	2b 45 f0             	sub    eax,DWORD PTR [ebp-0x10]
    16e0:	1b 55 f4             	sbb    edx,DWORD PTR [ebp-0xc]
    16e3:	01 c1                	add    ecx,eax
    16e5:	11 d3                	adc    ebx,edx
    16e7:	8b 45 10             	mov    eax,DWORD PTR [ebp+0x10]
    16ea:	8b 55 14             	mov    edx,DWORD PTR [ebp+0x14]
    16ed:	53                   	push   ebx
    16ee:	51                   	push   ecx
    16ef:	52                   	push   edx
    16f0:	50                   	push   eax
    16f1:	e8 eb f9 ff ff       	call   0x10e1
    16f6:	83 c4 10             	add    esp,0x10
    16f9:	89 45 d8             	mov    DWORD PTR [ebp-0x28],eax
    16fc:	89 55 dc             	mov    DWORD PTR [ebp-0x24],edx
    16ff:	8b 45 08             	mov    eax,DWORD PTR [ebp+0x8]
    1702:	8b 55 0c             	mov    edx,DWORD PTR [ebp+0xc]
    1705:	89 45 ac             	mov    DWORD PTR [ebp-0x54],eax
    1708:	89 55 b0             	mov    DWORD PTR [ebp-0x50],edx
    170b:	8b 45 d8             	mov    eax,DWORD PTR [ebp-0x28]
    170e:	8b 55 dc             	mov    edx,DWORD PTR [ebp-0x24]
    1711:	89 45 b4             	mov    DWORD PTR [ebp-0x4c],eax
    1714:	89 55 b8             	mov    DWORD PTR [ebp-0x48],edx
    1717:	8b 45 f0             	mov    eax,DWORD PTR [ebp-0x10]
    171a:	8b 55 f4             	mov    edx,DWORD PTR [ebp-0xc]
    171d:	25 ff ff 1f 00       	and    eax,0x1fffff
    1722:	ba 00 00 00 00       	mov    edx,0x0
    1727:	89 c1                	mov    ecx,eax
    1729:	89 c8                	mov    eax,ecx
    172b:	09 d0                	or     eax,edx
    172d:	75 5c                	jne    0x178b
    172f:	8b 45 08             	mov    eax,DWORD PTR [ebp+0x8]
    1732:	8b 55 0c             	mov    edx,DWORD PTR [ebp+0xc]
    1735:	25 ff ff 1f 00       	and    eax,0x1fffff
    173a:	ba 00 00 00 00       	mov    edx,0x0
    173f:	89 c1                	mov    ecx,eax
    1741:	89 c8                	mov    eax,ecx
    1743:	09 d0                	or     eax,edx
    1745:	75 44                	jne    0x178b
    1747:	8b 4d 08             	mov    ecx,DWORD PTR [ebp+0x8]
    174a:	8b 5d 0c             	mov    ebx,DWORD PTR [ebp+0xc]
    174d:	8b 45 d8             	mov    eax,DWORD PTR [ebp-0x28]
    1750:	8b 55 dc             	mov    edx,DWORD PTR [ebp-0x24]
    1753:	29 c8                	sub    eax,ecx
    1755:	19 da                	sbb    edx,ebx
    1757:	89 c1                	mov    ecx,eax
    1759:	89 c8                	mov    eax,ecx
    175b:	35 00 00 20 00       	xor    eax,0x200000
    1760:	09 d0                	or     eax,edx
    1762:	75 27                	jne    0x178b
    1764:	8b 45 98             	mov    eax,DWORD PTR [ebp-0x68]
    1767:	8b 55 9c             	mov    edx,DWORD PTR [ebp-0x64]
    176a:	0c 80                	or     al,0x80
    176c:	89 c1                	mov    ecx,eax
    176e:	89 d3                	mov    ebx,edx
    1770:	8b 45 08             	mov    eax,DWORD PTR [ebp+0x8]
    1773:	8b 55 0c             	mov    edx,DWORD PTR [ebp+0xc]
    1776:	8b 75 bc             	mov    esi,DWORD PTR [ebp-0x44]
    1779:	83 ec 04             	sub    esp,0x4
    177c:	53                   	push   ebx
    177d:	51                   	push   ecx
    177e:	52                   	push   edx
    177f:	50                   	push   eax
    1780:	56                   	push   esi
    1781:	e8 d1 fd ff ff       	call   0x1557
    1786:	83 c4 18             	add    esp,0x18
    1789:	eb 75                	jmp    0x1800
    178b:	8b 45 bc             	mov    eax,DWORD PTR [ebp-0x44]
    178e:	8b 50 04             	mov    edx,DWORD PTR [eax+0x4]
    1791:	8b 00                	mov    eax,DWORD PTR [eax]
    1793:	83 e0 01             	and    eax,0x1
    1796:	88 45 d7             	mov    BYTE PTR [ebp-0x29],al
    1799:	80 7d d7 00          	cmp    BYTE PTR [ebp-0x29],0x0
    179d:	74 11                	je     0x17b0
    179f:	8b 45 bc             	mov    eax,DWORD PTR [ebp-0x44]
    17a2:	83 ec 0c             	sub    esp,0xc
    17a5:	50                   	push   eax
    17a6:	e8 cf 16 00 00       	call   0x2e7a
    17ab:	83 c4 10             	add    esp,0x10
    17ae:	eb 0a                	jmp    0x17ba
    17b0:	e8 0d fd ff ff       	call   0x14c2
    17b5:	ba 00 00 00 00       	mov    edx,0x0
    17ba:	89 45 c8             	mov    DWORD PTR [ebp-0x38],eax
    17bd:	89 55 cc             	mov    DWORD PTR [ebp-0x34],edx
    17c0:	8b 45 c8             	mov    eax,DWORD PTR [ebp-0x38]
    17c3:	83 ec 0c             	sub    esp,0xc
    17c6:	50                   	push   eax
    17c7:	ff 75 9c             	push   DWORD PTR [ebp-0x64]
    17ca:	ff 75 98             	push   DWORD PTR [ebp-0x68]
    17cd:	ff 75 f4             	push   DWORD PTR [ebp-0xc]
    17d0:	ff 75 f0             	push   DWORD PTR [ebp-0x10]
    17d3:	ff 75 b8             	push   DWORD PTR [ebp-0x48]
    17d6:	ff 75 b4             	push   DWORD PTR [ebp-0x4c]
    17d9:	ff 75 b0             	push   DWORD PTR [ebp-0x50]
    17dc:	ff 75 ac             	push   DWORD PTR [ebp-0x54]
    17df:	e8 d5 fd ff ff       	call   0x15b9
    17e4:	83 c4 30             	add    esp,0x30
    17e7:	8b 45 bc             	mov    eax,DWORD PTR [ebp-0x44]
    17ea:	83 ec 0c             	sub    esp,0xc
    17ed:	6a 00                	push   0x0
    17ef:	6a 03                	push   0x3
    17f1:	ff 75 cc             	push   DWORD PTR [ebp-0x34]
    17f4:	ff 75 c8             	push   DWORD PTR [ebp-0x38]
    17f7:	50                   	push   eax
    17f8:	e8 5a fd ff ff       	call   0x1557
    17fd:	83 c4 20             	add    esp,0x20
    1800:	8b 4d 08             	mov    ecx,DWORD PTR [ebp+0x8]
    1803:	8b 5d 0c             	mov    ebx,DWORD PTR [ebp+0xc]
    1806:	8b 45 d8             	mov    eax,DWORD PTR [ebp-0x28]
    1809:	8b 55 dc             	mov    edx,DWORD PTR [ebp-0x24]
    180c:	29 c8                	sub    eax,ecx
    180e:	19 da                	sbb    edx,ebx
    1810:	89 45 c0             	mov    DWORD PTR [ebp-0x40],eax
    1813:	89 55 c4             	mov    DWORD PTR [ebp-0x3c],edx
    1816:	8b 4d 08             	mov    ecx,DWORD PTR [ebp+0x8]
    1819:	8b 5d 0c             	mov    ebx,DWORD PTR [ebp+0xc]
    181c:	8b 45 c0             	mov    eax,DWORD PTR [ebp-0x40]
    181f:	8b 55 c4             	mov    edx,DWORD PTR [ebp-0x3c]
    1822:	01 c8                	add    eax,ecx
    1824:	11 da                	adc    edx,ebx
    1826:	89 45 08             	mov    DWORD PTR [ebp+0x8],eax
    1829:	89 55 0c             	mov    DWORD PTR [ebp+0xc],edx
    182c:	8b 45 c0             	mov    eax,DWORD PTR [ebp-0x40]
    182f:	8b 55 c4             	mov    edx,DWORD PTR [ebp-0x3c]
    1832:	01 45 f0             	add    DWORD PTR [ebp-0x10],eax
    1835:	11 55 f4             	adc    DWORD PTR [ebp-0xc],edx
    1838:	8b 4d 08             	mov    ecx,DWORD PTR [ebp+0x8]
    183b:	8b 5d 0c             	mov    ebx,DWORD PTR [ebp+0xc]
    183e:	8b 45 10             	mov    eax,DWORD PTR [ebp+0x10]
    1841:	8b 55 14             	mov    edx,DWORD PTR [ebp+0x14]
    1844:	39 c1                	cmp    ecx,eax
    1846:	19 d3                	sbb    ebx,edx
    1848:	0f 82 44 fe ff ff    	jb     0x1692
    184e:	90                   	nop
    184f:	90                   	nop
    1850:	8d 65 f8             	lea    esp,[ebp-0x8]
    1853:	5b                   	pop    ebx
    1854:	5e                   	pop    esi
    1855:	5d                   	pop    ebp
    1856:	c3                   	ret
    1857:	55                   	push   ebp
    1858:	89 e5                	mov    ebp,esp
    185a:	53                   	push   ebx
    185b:	83 ec 64             	sub    esp,0x64
    185e:	8b 45 18             	mov    eax,DWORD PTR [ebp+0x18]
    1861:	89 45 a0             	mov    DWORD PTR [ebp-0x60],eax
    1864:	8b 45 1c             	mov    eax,DWORD PTR [ebp+0x1c]
    1867:	89 45 a4             	mov    DWORD PTR [ebp-0x5c],eax
    186a:	8b 45 20             	mov    eax,DWORD PTR [ebp+0x20]
    186d:	89 45 98             	mov    DWORD PTR [ebp-0x68],eax
    1870:	8b 45 24             	mov    eax,DWORD PTR [ebp+0x24]
    1873:	89 45 9c             	mov    DWORD PTR [ebp-0x64],eax
    1876:	8b 45 a0             	mov    eax,DWORD PTR [ebp-0x60]
    1879:	8b 55 a4             	mov    edx,DWORD PTR [ebp-0x5c]
    187c:	89 45 f0             	mov    DWORD PTR [ebp-0x10],eax
    187f:	89 55 f4             	mov    DWORD PTR [ebp-0xc],edx
    1882:	e9 32 01 00 00       	jmp    0x19b9
    1887:	8b 45 f0             	mov    eax,DWORD PTR [ebp-0x10]
    188a:	8b 55 f4             	mov    edx,DWORD PTR [ebp-0xc]
    188d:	0f ac d0 1e          	shrd   eax,edx,0x1e
    1891:	c1 ea 1e             	shr    edx,0x1e
    1894:	66 25 ff 01          	and    ax,0x1ff
    1898:	66 89 45 ee          	mov    WORD PTR [ebp-0x12],ax
    189c:	8b 45 28             	mov    eax,DWORD PTR [ebp+0x28]
    189f:	89 c2                	mov    edx,eax
    18a1:	0f b7 45 ee          	movzx  eax,WORD PTR [ebp-0x12]
    18a5:	c1 e0 03             	shl    eax,0x3
    18a8:	01 d0                	add    eax,edx
    18aa:	89 45 c4             	mov    DWORD PTR [ebp-0x3c],eax
    18ad:	8b 45 c4             	mov    eax,DWORD PTR [ebp-0x3c]
    18b0:	8b 50 04             	mov    edx,DWORD PTR [eax+0x4]
    18b3:	8b 00                	mov    eax,DWORD PTR [eax]
    18b5:	83 e0 01             	and    eax,0x1
    18b8:	88 45 ed             	mov    BYTE PTR [ebp-0x13],al
    18bb:	80 7d ed 00          	cmp    BYTE PTR [ebp-0x13],0x0
    18bf:	74 11                	je     0x18d2
    18c1:	8b 45 c4             	mov    eax,DWORD PTR [ebp-0x3c]
    18c4:	83 ec 0c             	sub    esp,0xc
    18c7:	50                   	push   eax
    18c8:	e8 ad 15 00 00       	call   0x2e7a
    18cd:	83 c4 10             	add    esp,0x10
    18d0:	eb 0a                	jmp    0x18dc
    18d2:	e8 eb fb ff ff       	call   0x14c2
    18d7:	ba 00 00 00 00       	mov    edx,0x0
    18dc:	89 45 e0             	mov    DWORD PTR [ebp-0x20],eax
    18df:	89 55 e4             	mov    DWORD PTR [ebp-0x1c],edx
    18e2:	8b 45 f0             	mov    eax,DWORD PTR [ebp-0x10]
    18e5:	8b 55 f4             	mov    edx,DWORD PTR [ebp-0xc]
    18e8:	25 00 00 00 c0       	and    eax,0xc0000000
    18ed:	05 00 00 00 40       	add    eax,0x40000000
    18f2:	83 d2 00             	adc    edx,0x0
    18f5:	89 45 d8             	mov    DWORD PTR [ebp-0x28],eax
    18f8:	89 55 dc             	mov    DWORD PTR [ebp-0x24],edx
    18fb:	8b 4d 08             	mov    ecx,DWORD PTR [ebp+0x8]
    18fe:	8b 5d 0c             	mov    ebx,DWORD PTR [ebp+0xc]
    1901:	8b 45 d8             	mov    eax,DWORD PTR [ebp-0x28]
    1904:	8b 55 dc             	mov    edx,DWORD PTR [ebp-0x24]
    1907:	2b 45 f0             	sub    eax,DWORD PTR [ebp-0x10]
    190a:	1b 55 f4             	sbb    edx,DWORD PTR [ebp-0xc]
    190d:	01 c1                	add    ecx,eax
    190f:	11 d3                	adc    ebx,edx
    1911:	8b 45 10             	mov    eax,DWORD PTR [ebp+0x10]
    1914:	8b 55 14             	mov    edx,DWORD PTR [ebp+0x14]
    1917:	53                   	push   ebx
    1918:	51                   	push   ecx
    1919:	52                   	push   edx
    191a:	50                   	push   eax
    191b:	e8 c1 f7 ff ff       	call   0x10e1
    1920:	83 c4 10             	add    esp,0x10
    1923:	89 45 d0             	mov    DWORD PTR [ebp-0x30],eax
    1926:	89 55 d4             	mov    DWORD PTR [ebp-0x2c],edx
    1929:	8b 45 08             	mov    eax,DWORD PTR [ebp+0x8]
    192c:	8b 55 0c             	mov    edx,DWORD PTR [ebp+0xc]
    192f:	89 45 b4             	mov    DWORD PTR [ebp-0x4c],eax
    1932:	89 55 b8             	mov    DWORD PTR [ebp-0x48],edx
    1935:	8b 45 d0             	mov    eax,DWORD PTR [ebp-0x30]
    1938:	8b 55 d4             	mov    edx,DWORD PTR [ebp-0x2c]
    193b:	89 45 bc             	mov    DWORD PTR [ebp-0x44],eax
    193e:	89 55 c0             	mov    DWORD PTR [ebp-0x40],edx
    1941:	8b 45 e0             	mov    eax,DWORD PTR [ebp-0x20]
    1944:	83 ec 0c             	sub    esp,0xc
    1947:	50                   	push   eax
    1948:	ff 75 9c             	push   DWORD PTR [ebp-0x64]
    194b:	ff 75 98             	push   DWORD PTR [ebp-0x68]
    194e:	ff 75 f4             	push   DWORD PTR [ebp-0xc]
    1951:	ff 75 f0             	push   DWORD PTR [ebp-0x10]
    1954:	ff 75 c0             	push   DWORD PTR [ebp-0x40]
    1957:	ff 75 bc             	push   DWORD PTR [ebp-0x44]
    195a:	ff 75 b8             	push   DWORD PTR [ebp-0x48]
    195d:	ff 75 b4             	push   DWORD PTR [ebp-0x4c]
    1960:	e8 fc fc ff ff       	call   0x1661
    1965:	83 c4 30             	add    esp,0x30
    1968:	8b 45 c4             	mov    eax,DWORD PTR [ebp-0x3c]
    196b:	83 ec 0c             	sub    esp,0xc
    196e:	6a 00                	push   0x0
    1970:	6a 03                	push   0x3
    1972:	ff 75 e4             	push   DWORD PTR [ebp-0x1c]
    1975:	ff 75 e0             	push   DWORD PTR [ebp-0x20]
    1978:	50                   	push   eax
    1979:	e8 d9 fb ff ff       	call   0x1557
    197e:	83 c4 20             	add    esp,0x20
    1981:	8b 4d 08             	mov    ecx,DWORD PTR [ebp+0x8]
    1984:	8b 5d 0c             	mov    ebx,DWORD PTR [ebp+0xc]
    1987:	8b 45 d0             	mov    eax,DWORD PTR [ebp-0x30]
    198a:	8b 55 d4             	mov    edx,DWORD PTR [ebp-0x2c]
    198d:	29 c8                	sub    eax,ecx
    198f:	19 da                	sbb    edx,ebx
    1991:	89 45 c8             	mov    DWORD PTR [ebp-0x38],eax
    1994:	89 55 cc             	mov    DWORD PTR [ebp-0x34],edx
    1997:	8b 4d 08             	mov    ecx,DWORD PTR [ebp+0x8]
    199a:	8b 5d 0c             	mov    ebx,DWORD PTR [ebp+0xc]
    199d:	8b 45 c8             	mov    eax,DWORD PTR [ebp-0x38]
    19a0:	8b 55 cc             	mov    edx,DWORD PTR [ebp-0x34]
    19a3:	01 c8                	add    eax,ecx
    19a5:	11 da                	adc    edx,ebx
    19a7:	89 45 08             	mov    DWORD PTR [ebp+0x8],eax
    19aa:	89 55 0c             	mov    DWORD PTR [ebp+0xc],edx
    19ad:	8b 45 c8             	mov    eax,DWORD PTR [ebp-0x38]
    19b0:	8b 55 cc             	mov    edx,DWORD PTR [ebp-0x34]
    19b3:	01 45 f0             	add    DWORD PTR [ebp-0x10],eax
    19b6:	11 55 f4             	adc    DWORD PTR [ebp-0xc],edx
    19b9:	8b 4d 08             	mov    ecx,DWORD PTR [ebp+0x8]
    19bc:	8b 5d 0c             	mov    ebx,DWORD PTR [ebp+0xc]
    19bf:	8b 45 10             	mov    eax,DWORD PTR [ebp+0x10]
    19c2:	8b 55 14             	mov    edx,DWORD PTR [ebp+0x14]
    19c5:	39 c1                	cmp    ecx,eax
    19c7:	19 d3                	sbb    ebx,edx
    19c9:	0f 82 b8 fe ff ff    	jb     0x1887
    19cf:	90                   	nop
    19d0:	90                   	nop
    19d1:	8b 5d fc             	mov    ebx,DWORD PTR [ebp-0x4]
    19d4:	c9                   	leave
    19d5:	c3                   	ret
    19d6:	55                   	push   ebp
    19d7:	89 e5                	mov    ebp,esp
    19d9:	53                   	push   ebx
    19da:	83 ec 64             	sub    esp,0x64
    19dd:	8b 45 18             	mov    eax,DWORD PTR [ebp+0x18]
    19e0:	89 45 a0             	mov    DWORD PTR [ebp-0x60],eax
    19e3:	8b 45 1c             	mov    eax,DWORD PTR [ebp+0x1c]
    19e6:	89 45 a4             	mov    DWORD PTR [ebp-0x5c],eax
    19e9:	8b 45 20             	mov    eax,DWORD PTR [ebp+0x20]
    19ec:	89 45 98             	mov    DWORD PTR [ebp-0x68],eax
    19ef:	8b 45 24             	mov    eax,DWORD PTR [ebp+0x24]
    19f2:	89 45 9c             	mov    DWORD PTR [ebp-0x64],eax
    19f5:	8b 45 a0             	mov    eax,DWORD PTR [ebp-0x60]
    19f8:	8b 55 a4             	mov    edx,DWORD PTR [ebp-0x5c]
    19fb:	89 45 f0             	mov    DWORD PTR [ebp-0x10],eax
    19fe:	89 55 f4             	mov    DWORD PTR [ebp-0xc],edx
    1a01:	e9 32 01 00 00       	jmp    0x1b38
    1a06:	8b 45 f0             	mov    eax,DWORD PTR [ebp-0x10]
    1a09:	8b 55 f4             	mov    edx,DWORD PTR [ebp-0xc]
    1a0c:	89 d0                	mov    eax,edx
    1a0e:	31 d2                	xor    edx,edx
    1a10:	c1 e8 07             	shr    eax,0x7
    1a13:	66 25 ff 01          	and    ax,0x1ff
    1a17:	66 89 45 ee          	mov    WORD PTR [ebp-0x12],ax
    1a1b:	a1 94 d0 00 00       	mov    eax,ds:0xd094
    1a20:	89 c2                	mov    edx,eax
    1a22:	0f b7 45 ee          	movzx  eax,WORD PTR [ebp-0x12]
    1a26:	c1 e0 03             	shl    eax,0x3
    1a29:	01 d0                	add    eax,edx
    1a2b:	89 45 c4             	mov    DWORD PTR [ebp-0x3c],eax
    1a2e:	8b 45 c4             	mov    eax,DWORD PTR [ebp-0x3c]
    1a31:	8b 50 04             	mov    edx,DWORD PTR [eax+0x4]
    1a34:	8b 00                	mov    eax,DWORD PTR [eax]
    1a36:	83 e0 01             	and    eax,0x1
    1a39:	88 45 ed             	mov    BYTE PTR [ebp-0x13],al
    1a3c:	80 7d ed 00          	cmp    BYTE PTR [ebp-0x13],0x0
    1a40:	74 11                	je     0x1a53
    1a42:	8b 45 c4             	mov    eax,DWORD PTR [ebp-0x3c]
    1a45:	83 ec 0c             	sub    esp,0xc
    1a48:	50                   	push   eax
    1a49:	e8 2c 14 00 00       	call   0x2e7a
    1a4e:	83 c4 10             	add    esp,0x10
    1a51:	eb 0a                	jmp    0x1a5d
    1a53:	e8 6a fa ff ff       	call   0x14c2
    1a58:	ba 00 00 00 00       	mov    edx,0x0
    1a5d:	89 45 e0             	mov    DWORD PTR [ebp-0x20],eax
    1a60:	89 55 e4             	mov    DWORD PTR [ebp-0x1c],edx
    1a63:	8b 45 f0             	mov    eax,DWORD PTR [ebp-0x10]
    1a66:	8b 55 f4             	mov    edx,DWORD PTR [ebp-0xc]
    1a69:	b8 00 00 00 00       	mov    eax,0x0
    1a6e:	83 e2 80             	and    edx,0xffffff80
    1a71:	83 ea 80             	sub    edx,0xffffff80
    1a74:	89 45 d8             	mov    DWORD PTR [ebp-0x28],eax
    1a77:	89 55 dc             	mov    DWORD PTR [ebp-0x24],edx
    1a7a:	8b 4d 08             	mov    ecx,DWORD PTR [ebp+0x8]
    1a7d:	8b 5d 0c             	mov    ebx,DWORD PTR [ebp+0xc]
    1a80:	8b 45 d8             	mov    eax,DWORD PTR [ebp-0x28]
    1a83:	8b 55 dc             	mov    edx,DWORD PTR [ebp-0x24]
    1a86:	2b 45 f0             	sub    eax,DWORD PTR [ebp-0x10]
    1a89:	1b 55 f4             	sbb    edx,DWORD PTR [ebp-0xc]
    1a8c:	01 c1                	add    ecx,eax
    1a8e:	11 d3                	adc    ebx,edx
    1a90:	8b 45 10             	mov    eax,DWORD PTR [ebp+0x10]
    1a93:	8b 55 14             	mov    edx,DWORD PTR [ebp+0x14]
    1a96:	53                   	push   ebx
    1a97:	51                   	push   ecx
    1a98:	52                   	push   edx
    1a99:	50                   	push   eax
    1a9a:	e8 42 f6 ff ff       	call   0x10e1
    1a9f:	83 c4 10             	add    esp,0x10
    1aa2:	89 45 d0             	mov    DWORD PTR [ebp-0x30],eax
    1aa5:	89 55 d4             	mov    DWORD PTR [ebp-0x2c],edx
    1aa8:	8b 45 08             	mov    eax,DWORD PTR [ebp+0x8]
    1aab:	8b 55 0c             	mov    edx,DWORD PTR [ebp+0xc]
    1aae:	89 45 b4             	mov    DWORD PTR [ebp-0x4c],eax
    1ab1:	89 55 b8             	mov    DWORD PTR [ebp-0x48],edx
    1ab4:	8b 45 d0             	mov    eax,DWORD PTR [ebp-0x30]
    1ab7:	8b 55 d4             	mov    edx,DWORD PTR [ebp-0x2c]
    1aba:	89 45 bc             	mov    DWORD PTR [ebp-0x44],eax
    1abd:	89 55 c0             	mov    DWORD PTR [ebp-0x40],edx
    1ac0:	8b 45 e0             	mov    eax,DWORD PTR [ebp-0x20]
    1ac3:	83 ec 0c             	sub    esp,0xc
    1ac6:	50                   	push   eax
    1ac7:	ff 75 9c             	push   DWORD PTR [ebp-0x64]
    1aca:	ff 75 98             	push   DWORD PTR [ebp-0x68]
    1acd:	ff 75 f4             	push   DWORD PTR [ebp-0xc]
    1ad0:	ff 75 f0             	push   DWORD PTR [ebp-0x10]
    1ad3:	ff 75 c0             	push   DWORD PTR [ebp-0x40]
    1ad6:	ff 75 bc             	push   DWORD PTR [ebp-0x44]
    1ad9:	ff 75 b8             	push   DWORD PTR [ebp-0x48]
    1adc:	ff 75 b4             	push   DWORD PTR [ebp-0x4c]
    1adf:	e8 73 fd ff ff       	call   0x1857
    1ae4:	83 c4 30             	add    esp,0x30
    1ae7:	8b 45 c4             	mov    eax,DWORD PTR [ebp-0x3c]
    1aea:	83 ec 0c             	sub    esp,0xc
    1aed:	6a 00                	push   0x0
    1aef:	6a 03                	push   0x3
    1af1:	ff 75 e4             	push   DWORD PTR [ebp-0x1c]
    1af4:	ff 75 e0             	push   DWORD PTR [ebp-0x20]
    1af7:	50                   	push   eax
    1af8:	e8 5a fa ff ff       	call   0x1557
    1afd:	83 c4 20             	add    esp,0x20
    1b00:	8b 4d 08             	mov    ecx,DWORD PTR [ebp+0x8]
    1b03:	8b 5d 0c             	mov    ebx,DWORD PTR [ebp+0xc]
    1b06:	8b 45 d0             	mov    eax,DWORD PTR [ebp-0x30]
    1b09:	8b 55 d4             	mov    edx,DWORD PTR [ebp-0x2c]
    1b0c:	29 c8                	sub    eax,ecx
    1b0e:	19 da                	sbb    edx,ebx
    1b10:	89 45 c8             	mov    DWORD PTR [ebp-0x38],eax
    1b13:	89 55 cc             	mov    DWORD PTR [ebp-0x34],edx
    1b16:	8b 4d 08             	mov    ecx,DWORD PTR [ebp+0x8]
    1b19:	8b 5d 0c             	mov    ebx,DWORD PTR [ebp+0xc]
    1b1c:	8b 45 c8             	mov    eax,DWORD PTR [ebp-0x38]
    1b1f:	8b 55 cc             	mov    edx,DWORD PTR [ebp-0x34]
    1b22:	01 c8                	add    eax,ecx
    1b24:	11 da                	adc    edx,ebx
    1b26:	89 45 08             	mov    DWORD PTR [ebp+0x8],eax
    1b29:	89 55 0c             	mov    DWORD PTR [ebp+0xc],edx
    1b2c:	8b 45 c8             	mov    eax,DWORD PTR [ebp-0x38]
    1b2f:	8b 55 cc             	mov    edx,DWORD PTR [ebp-0x34]
    1b32:	01 45 f0             	add    DWORD PTR [ebp-0x10],eax
    1b35:	11 55 f4             	adc    DWORD PTR [ebp-0xc],edx
    1b38:	8b 4d 08             	mov    ecx,DWORD PTR [ebp+0x8]
    1b3b:	8b 5d 0c             	mov    ebx,DWORD PTR [ebp+0xc]
    1b3e:	8b 45 10             	mov    eax,DWORD PTR [ebp+0x10]
    1b41:	8b 55 14             	mov    edx,DWORD PTR [ebp+0x14]
    1b44:	39 c1                	cmp    ecx,eax
    1b46:	19 d3                	sbb    ebx,edx
    1b48:	0f 82 b8 fe ff ff    	jb     0x1a06
    1b4e:	90                   	nop
    1b4f:	90                   	nop
    1b50:	8b 5d fc             	mov    ebx,DWORD PTR [ebp-0x4]
    1b53:	c9                   	leave
    1b54:	c3                   	ret
    1b55:	55                   	push   ebp
    1b56:	89 e5                	mov    ebp,esp
    1b58:	83 ec 18             	sub    esp,0x18
    1b5b:	8b 45 08             	mov    eax,DWORD PTR [ebp+0x8]
    1b5e:	8b 55 0c             	mov    edx,DWORD PTR [ebp+0xc]
    1b61:	83 ec 08             	sub    esp,0x8
    1b64:	52                   	push   edx
    1b65:	50                   	push   eax
    1b66:	e8 35 ed ff ff       	call   0x8a0
    1b6b:	83 c4 10             	add    esp,0x10
    1b6e:	89 45 f4             	mov    DWORD PTR [ebp-0xc],eax
    1b71:	8b 45 10             	mov    eax,DWORD PTR [ebp+0x10]
    1b74:	8b 55 14             	mov    edx,DWORD PTR [ebp+0x14]
    1b77:	83 ec 08             	sub    esp,0x8
    1b7a:	52                   	push   edx
    1b7b:	50                   	push   eax
    1b7c:	e8 1f ed ff ff       	call   0x8a0
    1b81:	83 c4 10             	add    esp,0x10
    1b84:	89 45 f0             	mov    DWORD PTR [ebp-0x10],eax
    1b87:	83 ec 08             	sub    esp,0x8
    1b8a:	68 a1 ce 00 00       	push   0xcea1
    1b8f:	ff 75 f4             	push   DWORD PTR [ebp-0xc]
    1b92:	e8 01 1b 00 00       	call   0x3698
    1b97:	83 c4 10             	add    esp,0x10
    1b9a:	89 45 ec             	mov    DWORD PTR [ebp-0x14],eax
    1b9d:	83 ec 08             	sub    esp,0x8
    1ba0:	ff 75 f0             	push   DWORD PTR [ebp-0x10]
    1ba3:	ff 75 ec             	push   DWORD PTR [ebp-0x14]
    1ba6:	e8 ed 1a 00 00       	call   0x3698
    1bab:	83 c4 10             	add    esp,0x10
    1bae:	89 45 e8             	mov    DWORD PTR [ebp-0x18],eax
    1bb1:	83 ec 0c             	sub    esp,0xc
    1bb4:	ff 75 f4             	push   DWORD PTR [ebp-0xc]
    1bb7:	e8 c3 0b 00 00       	call   0x277f
    1bbc:	83 c4 10             	add    esp,0x10
    1bbf:	83 ec 0c             	sub    esp,0xc
    1bc2:	ff 75 f0             	push   DWORD PTR [ebp-0x10]
    1bc5:	e8 b5 0b 00 00       	call   0x277f
    1bca:	83 c4 10             	add    esp,0x10
    1bcd:	83 ec 0c             	sub    esp,0xc
    1bd0:	ff 75 ec             	push   DWORD PTR [ebp-0x14]
    1bd3:	e8 a7 0b 00 00       	call   0x277f
    1bd8:	83 c4 10             	add    esp,0x10
    1bdb:	8b 45 e8             	mov    eax,DWORD PTR [ebp-0x18]
    1bde:	c9                   	leave
    1bdf:	c3                   	ret
    1be0:	55                   	push   ebp
    1be1:	89 e5                	mov    ebp,esp
    1be3:	83 7d 08 05          	cmp    DWORD PTR [ebp+0x8],0x5
    1be7:	77 32                	ja     0x1c1b
    1be9:	8b 45 08             	mov    eax,DWORD PTR [ebp+0x8]
    1bec:	c1 e0 02             	shl    eax,0x2
    1bef:	05 50 cf 00 00       	add    eax,0xcf50
    1bf4:	8b 00                	mov    eax,DWORD PTR [eax]
    1bf6:	ff e0                	jmp    eax
    1bf8:	b8 0b cf 00 00       	mov    eax,0xcf0b
    1bfd:	eb 21                	jmp    0x1c20
    1bff:	b8 17 cf 00 00       	mov    eax,0xcf17
    1c04:	eb 1a                	jmp    0x1c20
    1c06:	b8 22 cf 00 00       	mov    eax,0xcf22
    1c0b:	eb 13                	jmp    0x1c20
    1c0d:	b8 2e cf 00 00       	mov    eax,0xcf2e
    1c12:	eb 0c                	jmp    0x1c20
    1c14:	b8 39 cf 00 00       	mov    eax,0xcf39
    1c19:	eb 05                	jmp    0x1c20
    1c1b:	b8 45 cf 00 00       	mov    eax,0xcf45
    1c20:	5d                   	pop    ebp
    1c21:	c3                   	ret
    1c22:	55                   	push   ebp
    1c23:	89 e5                	mov    ebp,esp
    1c25:	57                   	push   edi
    1c26:	56                   	push   esi
    1c27:	53                   	push   ebx
    1c28:	83 ec 1c             	sub    esp,0x1c
    1c2b:	c7 45 e4 00 00 00 00 	mov    DWORD PTR [ebp-0x1c],0x0
    1c32:	eb 61                	jmp    0x1c95
    1c34:	8b 45 e4             	mov    eax,DWORD PTR [ebp-0x1c]
    1c37:	83 c0 01             	add    eax,0x1
    1c3a:	c1 e0 04             	shl    eax,0x4
    1c3d:	05 00 f0 00 00       	add    eax,0xf000
    1c42:	8b 48 0c             	mov    ecx,DWORD PTR [eax+0xc]
    1c45:	8b 58 10             	mov    ebx,DWORD PTR [eax+0x10]
    1c48:	8b 45 08             	mov    eax,DWORD PTR [ebp+0x8]
    1c4b:	8b 55 0c             	mov    edx,DWORD PTR [ebp+0xc]
    1c4e:	89 cf                	mov    edi,ecx
    1c50:	89 c6                	mov    esi,eax
    1c52:	89 d9                	mov    ecx,ebx
    1c54:	89 f8                	mov    eax,edi
    1c56:	31 f0                	xor    eax,esi
    1c58:	31 ca                	xor    edx,ecx
    1c5a:	09 d0                	or     eax,edx
    1c5c:	75 33                	jne    0x1c91
    1c5e:	8b 45 e4             	mov    eax,DWORD PTR [ebp-0x1c]
    1c61:	83 c0 01             	add    eax,0x1
    1c64:	c1 e0 04             	shl    eax,0x4
    1c67:	05 00 f0 00 00       	add    eax,0xf000
    1c6c:	8b 50 10             	mov    edx,DWORD PTR [eax+0x10]
    1c6f:	8b 40 0c             	mov    eax,DWORD PTR [eax+0xc]
    1c72:	05 00 00 20 00       	add    eax,0x200000
    1c77:	83 d2 00             	adc    edx,0x0
    1c7a:	8b 4d e4             	mov    ecx,DWORD PTR [ebp-0x1c]
    1c7d:	83 c1 01             	add    ecx,0x1
    1c80:	c1 e1 04             	shl    ecx,0x4
    1c83:	81 c1 00 f0 00 00    	add    ecx,0xf000
    1c89:	89 41 0c             	mov    DWORD PTR [ecx+0xc],eax
    1c8c:	89 51 10             	mov    DWORD PTR [ecx+0x10],edx
    1c8f:	eb 2b                	jmp    0x1cbc
    1c91:	83 45 e4 01          	add    DWORD PTR [ebp-0x1c],0x1
    1c95:	a1 18 f0 00 00       	mov    eax,ds:0xf018
    1c9a:	39 45 e4             	cmp    DWORD PTR [ebp-0x1c],eax
    1c9d:	72 95                	jb     0x1c34
    1c9f:	83 ec 0c             	sub    esp,0xc
    1ca2:	68 68 cf 00 00       	push   0xcf68
    1ca7:	e8 f3 ec ff ff       	call   0x99f
    1cac:	83 c4 10             	add    esp,0x10
    1caf:	83 ec 0c             	sub    esp,0xc
    1cb2:	6a 65                	push   0x65
    1cb4:	e8 87 1e 00 00       	call   0x3b40
    1cb9:	83 c4 10             	add    esp,0x10
    1cbc:	8d 65 f4             	lea    esp,[ebp-0xc]
    1cbf:	5b                   	pop    ebx
    1cc0:	5e                   	pop    esi
    1cc1:	5f                   	pop    edi
    1cc2:	5d                   	pop    ebp
    1cc3:	c3                   	ret
    1cc4:	55                   	push   ebp
    1cc5:	89 e5                	mov    ebp,esp
    1cc7:	53                   	push   ebx
    1cc8:	83 ec 64             	sub    esp,0x64
    1ccb:	83 ec 0c             	sub    esp,0xc
    1cce:	68 9c cf 00 00       	push   0xcf9c
    1cd3:	e8 af ed ff ff       	call   0xa87
    1cd8:	83 c4 10             	add    esp,0x10
    1cdb:	e8 ab f6 ff ff       	call   0x138b
    1ce0:	83 ec 0c             	sub    esp,0xc
    1ce3:	68 b8 cf 00 00       	push   0xcfb8
    1ce8:	e8 9a ed ff ff       	call   0xa87
    1ced:	83 c4 10             	add    esp,0x10
    1cf0:	c7 45 e8 00 05 00 00 	mov    DWORD PTR [ebp-0x18],0x500
    1cf7:	c6 45 f7 00          	mov    BYTE PTR [ebp-0x9],0x0
    1cfb:	c7 45 f0 00 00 00 00 	mov    DWORD PTR [ebp-0x10],0x0
    1d02:	e9 da 02 00 00       	jmp    0x1fe1
    1d07:	8b 4d e8             	mov    ecx,DWORD PTR [ebp-0x18]
    1d0a:	8b 55 f0             	mov    edx,DWORD PTR [ebp-0x10]
    1d0d:	89 d0                	mov    eax,edx
    1d0f:	01 c0                	add    eax,eax
    1d11:	01 d0                	add    eax,edx
    1d13:	c1 e0 03             	shl    eax,0x3
    1d16:	01 c8                	add    eax,ecx
    1d18:	8b 50 02             	mov    edx,DWORD PTR [eax+0x2]
    1d1b:	89 55 c8             	mov    DWORD PTR [ebp-0x38],edx
    1d1e:	8b 50 06             	mov    edx,DWORD PTR [eax+0x6]
    1d21:	89 55 cc             	mov    DWORD PTR [ebp-0x34],edx
    1d24:	8b 50 0a             	mov    edx,DWORD PTR [eax+0xa]
    1d27:	89 55 d0             	mov    DWORD PTR [ebp-0x30],edx
    1d2a:	8b 50 0e             	mov    edx,DWORD PTR [eax+0xe]
    1d2d:	89 55 d4             	mov    DWORD PTR [ebp-0x2c],edx
    1d30:	8b 50 12             	mov    edx,DWORD PTR [eax+0x12]
    1d33:	89 55 d8             	mov    DWORD PTR [ebp-0x28],edx
    1d36:	8b 40 16             	mov    eax,DWORD PTR [eax+0x16]
    1d39:	89 45 dc             	mov    DWORD PTR [ebp-0x24],eax
    1d3c:	8b 45 c8             	mov    eax,DWORD PTR [ebp-0x38]
    1d3f:	8b 55 cc             	mov    edx,DWORD PTR [ebp-0x34]
    1d42:	89 45 b8             	mov    DWORD PTR [ebp-0x48],eax
    1d45:	89 55 bc             	mov    DWORD PTR [ebp-0x44],edx
    1d48:	8b 4d c8             	mov    ecx,DWORD PTR [ebp-0x38]
    1d4b:	8b 5d cc             	mov    ebx,DWORD PTR [ebp-0x34]
    1d4e:	8b 45 d0             	mov    eax,DWORD PTR [ebp-0x30]
    1d51:	8b 55 d4             	mov    edx,DWORD PTR [ebp-0x2c]
    1d54:	01 c8                	add    eax,ecx
    1d56:	11 da                	adc    edx,ebx
    1d58:	89 45 c0             	mov    DWORD PTR [ebp-0x40],eax
    1d5b:	89 55 c4             	mov    DWORD PTR [ebp-0x3c],edx
    1d5e:	8d 45 a8             	lea    eax,[ebp-0x58]
    1d61:	83 ec 08             	sub    esp,0x8
    1d64:	8d 55 c8             	lea    edx,[ebp-0x38]
    1d67:	52                   	push   edx
    1d68:	50                   	push   eax
    1d69:	e8 5e f6 ff ff       	call   0x13cc
    1d6e:	83 c4 0c             	add    esp,0xc
    1d71:	8b 45 b0             	mov    eax,DWORD PTR [ebp-0x50]
    1d74:	8b 55 b4             	mov    edx,DWORD PTR [ebp-0x4c]
    1d77:	8b 4d a8             	mov    ecx,DWORD PTR [ebp-0x58]
    1d7a:	8b 5d ac             	mov    ebx,DWORD PTR [ebp-0x54]
    1d7d:	29 c8                	sub    eax,ecx
    1d7f:	19 da                	sbb    edx,ebx
    1d81:	89 45 e0             	mov    DWORD PTR [ebp-0x20],eax
    1d84:	89 55 e4             	mov    DWORD PTR [ebp-0x1c],edx
    1d87:	c7 45 ec 9c ce 00 00 	mov    DWORD PTR [ebp-0x14],0xce9c
    1d8e:	8b 45 d8             	mov    eax,DWORD PTR [ebp-0x28]
    1d91:	83 ec 0c             	sub    esp,0xc
    1d94:	50                   	push   eax
    1d95:	e8 46 fe ff ff       	call   0x1be0
    1d9a:	83 c4 10             	add    esp,0x10
    1d9d:	83 ec 08             	sub    esp,0x8
    1da0:	50                   	push   eax
    1da1:	ff 75 ec             	push   DWORD PTR [ebp-0x14]
    1da4:	e8 ef 18 00 00       	call   0x3698
    1da9:	83 c4 10             	add    esp,0x10
    1dac:	89 45 ec             	mov    DWORD PTR [ebp-0x14],eax
    1daf:	ff 75 c4             	push   DWORD PTR [ebp-0x3c]
    1db2:	ff 75 c0             	push   DWORD PTR [ebp-0x40]
    1db5:	ff 75 bc             	push   DWORD PTR [ebp-0x44]
    1db8:	ff 75 b8             	push   DWORD PTR [ebp-0x48]
    1dbb:	e8 95 fd ff ff       	call   0x1b55
    1dc0:	83 c4 10             	add    esp,0x10
    1dc3:	83 ec 08             	sub    esp,0x8
    1dc6:	50                   	push   eax
    1dc7:	ff 75 ec             	push   DWORD PTR [ebp-0x14]
    1dca:	e8 c9 18 00 00       	call   0x3698
    1dcf:	83 c4 10             	add    esp,0x10
    1dd2:	89 45 ec             	mov    DWORD PTR [ebp-0x14],eax
    1dd5:	8b 45 c8             	mov    eax,DWORD PTR [ebp-0x38]
    1dd8:	8b 55 cc             	mov    edx,DWORD PTR [ebp-0x34]
    1ddb:	89 c1                	mov    ecx,eax
    1ddd:	89 c8                	mov    eax,ecx
    1ddf:	09 d0                	or     eax,edx
    1de1:	75 37                	jne    0x1e1a
    1de3:	6a 00                	push   0x0
    1de5:	6a 03                	push   0x3
    1de7:	6a 00                	push   0x0
    1de9:	6a 00                	push   0x0
    1deb:	ff 75 b4             	push   DWORD PTR [ebp-0x4c]
    1dee:	ff 75 b0             	push   DWORD PTR [ebp-0x50]
    1df1:	ff 75 ac             	push   DWORD PTR [ebp-0x54]
    1df4:	ff 75 a8             	push   DWORD PTR [ebp-0x58]
    1df7:	e8 da fb ff ff       	call   0x19d6
    1dfc:	83 c4 20             	add    esp,0x20
    1dff:	83 ec 08             	sub    esp,0x8
    1e02:	68 df cf 00 00       	push   0xcfdf
    1e07:	ff 75 ec             	push   DWORD PTR [ebp-0x14]
    1e0a:	e8 89 18 00 00       	call   0x3698
    1e0f:	83 c4 10             	add    esp,0x10
    1e12:	89 45 ec             	mov    DWORD PTR [ebp-0x14],eax
    1e15:	e9 87 01 00 00       	jmp    0x1fa1
    1e1a:	8b 45 d8             	mov    eax,DWORD PTR [ebp-0x28]
    1e1d:	83 f8 01             	cmp    eax,0x1
    1e20:	74 77                	je     0x1e99
    1e22:	8b 45 a8             	mov    eax,DWORD PTR [ebp-0x58]
    1e25:	8b 55 ac             	mov    edx,DWORD PTR [ebp-0x54]
    1e28:	6a 00                	push   0x0
    1e2a:	6a 03                	push   0x3
    1e2c:	52                   	push   edx
    1e2d:	50                   	push   eax
    1e2e:	ff 75 b4             	push   DWORD PTR [ebp-0x4c]
    1e31:	ff 75 b0             	push   DWORD PTR [ebp-0x50]
    1e34:	ff 75 ac             	push   DWORD PTR [ebp-0x54]
    1e37:	ff 75 a8             	push   DWORD PTR [ebp-0x58]
    1e3a:	e8 97 fb ff ff       	call   0x19d6
    1e3f:	83 c4 20             	add    esp,0x20
    1e42:	83 ec 08             	sub    esp,0x8
    1e45:	68 e7 cf 00 00       	push   0xcfe7
    1e4a:	ff 75 ec             	push   DWORD PTR [ebp-0x14]
    1e4d:	e8 46 18 00 00       	call   0x3698
    1e52:	83 c4 10             	add    esp,0x10
    1e55:	89 45 ec             	mov    DWORD PTR [ebp-0x14],eax
    1e58:	ff 75 b4             	push   DWORD PTR [ebp-0x4c]
    1e5b:	ff 75 b0             	push   DWORD PTR [ebp-0x50]
    1e5e:	ff 75 ac             	push   DWORD PTR [ebp-0x54]
    1e61:	ff 75 a8             	push   DWORD PTR [ebp-0x58]
    1e64:	e8 ec fc ff ff       	call   0x1b55
    1e69:	83 c4 10             	add    esp,0x10
    1e6c:	83 ec 08             	sub    esp,0x8
    1e6f:	50                   	push   eax
    1e70:	ff 75 ec             	push   DWORD PTR [ebp-0x14]
    1e73:	e8 20 18 00 00       	call   0x3698
    1e78:	83 c4 10             	add    esp,0x10
    1e7b:	89 45 ec             	mov    DWORD PTR [ebp-0x14],eax
    1e7e:	83 ec 08             	sub    esp,0x8
    1e81:	68 f4 cf 00 00       	push   0xcff4
    1e86:	ff 75 ec             	push   DWORD PTR [ebp-0x14]
    1e89:	e8 0a 18 00 00       	call   0x3698
    1e8e:	83 c4 10             	add    esp,0x10
    1e91:	89 45 ec             	mov    DWORD PTR [ebp-0x14],eax
    1e94:	e9 08 01 00 00       	jmp    0x1fa1
    1e99:	ba ff ff 1f 00       	mov    edx,0x1fffff
    1e9e:	b8 00 00 00 00       	mov    eax,0x0
    1ea3:	3b 55 e0             	cmp    edx,DWORD PTR [ebp-0x20]
    1ea6:	1b 45 e4             	sbb    eax,DWORD PTR [ebp-0x1c]
    1ea9:	72 1b                	jb     0x1ec6
    1eab:	83 ec 08             	sub    esp,0x8
    1eae:	68 f6 cf 00 00       	push   0xcff6
    1eb3:	ff 75 ec             	push   DWORD PTR [ebp-0x14]
    1eb6:	e8 dd 17 00 00       	call   0x3698
    1ebb:	83 c4 10             	add    esp,0x10
    1ebe:	89 45 ec             	mov    DWORD PTR [ebp-0x14],eax
    1ec1:	e9 db 00 00 00       	jmp    0x1fa1
    1ec6:	80 7d f7 00          	cmp    BYTE PTR [ebp-0x9],0x0
    1eca:	74 1b                	je     0x1ee7
    1ecc:	83 ec 08             	sub    esp,0x8
    1ecf:	68 0c d0 00 00       	push   0xd00c
    1ed4:	ff 75 ec             	push   DWORD PTR [ebp-0x14]
    1ed7:	e8 bc 17 00 00       	call   0x3698
    1edc:	83 c4 10             	add    esp,0x10
    1edf:	89 45 ec             	mov    DWORD PTR [ebp-0x14],eax
    1ee2:	e9 ba 00 00 00       	jmp    0x1fa1
    1ee7:	ff 75 b4             	push   DWORD PTR [ebp-0x4c]
    1eea:	ff 75 b0             	push   DWORD PTR [ebp-0x50]
    1eed:	ff 75 ac             	push   DWORD PTR [ebp-0x54]
    1ef0:	ff 75 a8             	push   DWORD PTR [ebp-0x58]
    1ef3:	e8 2a fd ff ff       	call   0x1c22
    1ef8:	83 c4 10             	add    esp,0x10
    1efb:	8b 45 a8             	mov    eax,DWORD PTR [ebp-0x58]
    1efe:	8b 55 ac             	mov    edx,DWORD PTR [ebp-0x54]
    1f01:	89 45 98             	mov    DWORD PTR [ebp-0x68],eax
    1f04:	89 55 9c             	mov    DWORD PTR [ebp-0x64],edx
    1f07:	8b 45 a8             	mov    eax,DWORD PTR [ebp-0x58]
    1f0a:	8b 55 ac             	mov    edx,DWORD PTR [ebp-0x54]
    1f0d:	05 00 00 20 00       	add    eax,0x200000
    1f12:	83 d2 00             	adc    edx,0x0
    1f15:	89 45 a0             	mov    DWORD PTR [ebp-0x60],eax
    1f18:	89 55 a4             	mov    DWORD PTR [ebp-0x5c],edx
    1f1b:	6a 00                	push   0x0
    1f1d:	6a 03                	push   0x3
    1f1f:	6a ff                	push   0xffffffff
    1f21:	68 00 00 00 80       	push   0x80000000
    1f26:	ff 75 a4             	push   DWORD PTR [ebp-0x5c]
    1f29:	ff 75 a0             	push   DWORD PTR [ebp-0x60]
    1f2c:	ff 75 9c             	push   DWORD PTR [ebp-0x64]
    1f2f:	ff 75 98             	push   DWORD PTR [ebp-0x68]
    1f32:	e8 9f fa ff ff       	call   0x19d6
    1f37:	83 c4 20             	add    esp,0x20
    1f3a:	8b 45 a8             	mov    eax,DWORD PTR [ebp-0x58]
    1f3d:	8b 55 ac             	mov    edx,DWORD PTR [ebp-0x54]
    1f40:	a3 10 f0 00 00       	mov    ds:0xf010,eax
    1f45:	89 15 14 f0 00 00    	mov    DWORD PTR ds:0xf014,edx
    1f4b:	83 ec 08             	sub    esp,0x8
    1f4e:	68 2e d0 00 00       	push   0xd02e
    1f53:	ff 75 ec             	push   DWORD PTR [ebp-0x14]
    1f56:	e8 3d 17 00 00       	call   0x3698
    1f5b:	83 c4 10             	add    esp,0x10
    1f5e:	89 45 ec             	mov    DWORD PTR [ebp-0x14],eax
    1f61:	ff 75 a4             	push   DWORD PTR [ebp-0x5c]
    1f64:	ff 75 a0             	push   DWORD PTR [ebp-0x60]
    1f67:	ff 75 9c             	push   DWORD PTR [ebp-0x64]
    1f6a:	ff 75 98             	push   DWORD PTR [ebp-0x68]
    1f6d:	e8 e3 fb ff ff       	call   0x1b55
    1f72:	83 c4 10             	add    esp,0x10
    1f75:	83 ec 08             	sub    esp,0x8
    1f78:	50                   	push   eax
    1f79:	ff 75 ec             	push   DWORD PTR [ebp-0x14]
    1f7c:	e8 17 17 00 00       	call   0x3698
    1f81:	83 c4 10             	add    esp,0x10
    1f84:	89 45 ec             	mov    DWORD PTR [ebp-0x14],eax
    1f87:	83 ec 08             	sub    esp,0x8
    1f8a:	68 f4 cf 00 00       	push   0xcff4
    1f8f:	ff 75 ec             	push   DWORD PTR [ebp-0x14]
    1f92:	e8 01 17 00 00       	call   0x3698
    1f97:	83 c4 10             	add    esp,0x10
    1f9a:	89 45 ec             	mov    DWORD PTR [ebp-0x14],eax
    1f9d:	c6 45 f7 01          	mov    BYTE PTR [ebp-0x9],0x1
    1fa1:	a1 94 d0 00 00       	mov    eax,ds:0xd094
    1fa6:	ba 00 00 00 00       	mov    edx,0x0
    1fab:	a3 00 f0 00 00       	mov    ds:0xf000,eax
    1fb0:	89 15 04 f0 00 00    	mov    DWORD PTR ds:0xf004,edx
    1fb6:	c7 05 08 f0 00 00 00 	mov    DWORD PTR ds:0xf008,0x500
    1fbd:	05 00 00 
    1fc0:	c7 05 0c f0 00 00 00 	mov    DWORD PTR ds:0xf00c,0x0
    1fc7:	00 00 00 
    1fca:	83 ec 0c             	sub    esp,0xc
    1fcd:	ff 75 ec             	push   DWORD PTR [ebp-0x14]
    1fd0:	e8 86 e9 ff ff       	call   0x95b
    1fd5:	83 c4 10             	add    esp,0x10
    1fd8:	e8 fd 07 00 00       	call   0x27da
    1fdd:	83 45 f0 01          	add    DWORD PTR [ebp-0x10],0x1
    1fe1:	8b 45 e8             	mov    eax,DWORD PTR [ebp-0x18]
    1fe4:	0f b7 00             	movzx  eax,WORD PTR [eax]
    1fe7:	0f b7 c0             	movzx  eax,ax
    1fea:	39 45 f0             	cmp    DWORD PTR [ebp-0x10],eax
    1fed:	0f 82 14 fd ff ff    	jb     0x1d07
    1ff3:	b8 00 f0 00 00       	mov    eax,0xf000
    1ff8:	8b 5d fc             	mov    ebx,DWORD PTR [ebp-0x4]
    1ffb:	c9                   	leave
    1ffc:	c3                   	ret
    1ffd:	55                   	push   ebp
    1ffe:	89 e5                	mov    ebp,esp
    2000:	83 ec 18             	sub    esp,0x18
    2003:	c7 45 f4 00 00 03 00 	mov    DWORD PTR [ebp-0xc],0x30000
    200a:	b8 00 00 03 00       	mov    eax,0x30000
    200f:	05 ff 1f 00 00       	add    eax,0x1fff
    2014:	89 45 f0             	mov    DWORD PTR [ebp-0x10],eax
    2017:	83 ec 0c             	sub    esp,0xc
    201a:	68 39 d0 00 00       	push   0xd039
    201f:	e8 63 ea ff ff       	call   0xa87
    2024:	83 c4 10             	add    esp,0x10
    2027:	83 ec 04             	sub    esp,0x4
    202a:	6a 20                	push   0x20
    202c:	ff 75 f0             	push   DWORD PTR [ebp-0x10]
    202f:	ff 75 f4             	push   DWORD PTR [ebp-0xc]
    2032:	e8 69 04 00 00       	call   0x24a0
    2037:	83 c4 10             	add    esp,0x10
    203a:	89 45 ec             	mov    DWORD PTR [ebp-0x14],eax
    203d:	8b 45 ec             	mov    eax,DWORD PTR [ebp-0x14]
    2040:	85 c0                	test   eax,eax
    2042:	75 1d                	jne    0x2061
    2044:	83 ec 0c             	sub    esp,0xc
    2047:	68 4f d0 00 00       	push   0xd04f
    204c:	e8 4e e9 ff ff       	call   0x99f
    2051:	83 c4 10             	add    esp,0x10
    2054:	83 ec 0c             	sub    esp,0xc
    2057:	6a 01                	push   0x1
    2059:	e8 e2 1a 00 00       	call   0x3b40
    205e:	83 c4 10             	add    esp,0x10
    2061:	83 ec 0c             	sub    esp,0xc
    2064:	68 6b d0 00 00       	push   0xd06b
    2069:	e8 19 ea ff ff       	call   0xa87
    206e:	83 c4 10             	add    esp,0x10
    2071:	8b 45 ec             	mov    eax,DWORD PTR [ebp-0x14]
    2074:	83 ec 0c             	sub    esp,0xc
    2077:	50                   	push   eax
    2078:	e8 9e 05 00 00       	call   0x261b
    207d:	83 c4 10             	add    esp,0x10
    2080:	90                   	nop
    2081:	c9                   	leave
    2082:	c3                   	ret
    2083:	55                   	push   ebp
    2084:	89 e5                	mov    ebp,esp
    2086:	8b 45 0c             	mov    eax,DWORD PTR [ebp+0xc]
    2089:	8b 00                	mov    eax,DWORD PTR [eax]
    208b:	89 c2                	mov    edx,eax
    208d:	8b 45 08             	mov    eax,DWORD PTR [ebp+0x8]
    2090:	39 d0                	cmp    eax,edx
    2092:	72 16                	jb     0x20aa
    2094:	8b 45 0c             	mov    eax,DWORD PTR [ebp+0xc]
    2097:	8b 40 04             	mov    eax,DWORD PTR [eax+0x4]
    209a:	89 c2                	mov    edx,eax
    209c:	8b 45 08             	mov    eax,DWORD PTR [ebp+0x8]
    209f:	39 c2                	cmp    edx,eax
    20a1:	72 07                	jb     0x20aa
    20a3:	b8 01 00 00 00       	mov    eax,0x1
    20a8:	eb 05                	jmp    0x20af
    20aa:	b8 00 00 00 00       	mov    eax,0x0
    20af:	5d                   	pop    ebp
    20b0:	c3                   	ret
    20b1:	55                   	push   ebp
    20b2:	89 e5                	mov    ebp,esp
    20b4:	53                   	push   ebx
    20b5:	83 ec 10             	sub    esp,0x10
    20b8:	8b 45 0c             	mov    eax,DWORD PTR [ebp+0xc]
    20bb:	50                   	push   eax
    20bc:	ff 75 08             	push   DWORD PTR [ebp+0x8]
    20bf:	e8 bf ff ff ff       	call   0x2083
    20c4:	83 c4 08             	add    esp,0x8
    20c7:	84 c0                	test   al,al
    20c9:	75 07                	jne    0x20d2
    20cb:	b8 00 00 00 00       	mov    eax,0x0
    20d0:	eb 40                	jmp    0x2112
    20d2:	8b 55 08             	mov    edx,DWORD PTR [ebp+0x8]
    20d5:	8b 45 0c             	mov    eax,DWORD PTR [ebp+0xc]
    20d8:	8b 00                	mov    eax,DWORD PTR [eax]
    20da:	89 c1                	mov    ecx,eax
    20dc:	89 d0                	mov    eax,edx
    20de:	29 c8                	sub    eax,ecx
    20e0:	89 45 f8             	mov    DWORD PTR [ebp-0x8],eax
    20e3:	8b 45 0c             	mov    eax,DWORD PTR [ebp+0xc]
    20e6:	8b 00                	mov    eax,DWORD PTR [eax]
    20e8:	89 c2                	mov    edx,eax
    20ea:	8b 45 f8             	mov    eax,DWORD PTR [ebp-0x8]
    20ed:	01 c2                	add    edx,eax
    20ef:	8b 45 0c             	mov    eax,DWORD PTR [ebp+0xc]
    20f2:	8b 40 08             	mov    eax,DWORD PTR [eax+0x8]
    20f5:	8d 1c 02             	lea    ebx,[edx+eax*1]
    20f8:	8b 45 0c             	mov    eax,DWORD PTR [ebp+0xc]
    20fb:	8b 48 08             	mov    ecx,DWORD PTR [eax+0x8]
    20fe:	8b 45 f8             	mov    eax,DWORD PTR [ebp-0x8]
    2101:	ba 00 00 00 00       	mov    edx,0x0
    2106:	f7 f1                	div    ecx
    2108:	89 d8                	mov    eax,ebx
    210a:	29 d0                	sub    eax,edx
    210c:	89 45 f4             	mov    DWORD PTR [ebp-0xc],eax
    210f:	8b 45 f4             	mov    eax,DWORD PTR [ebp-0xc]
    2112:	8b 5d fc             	mov    ebx,DWORD PTR [ebp-0x4]
    2115:	c9                   	leave
    2116:	c3                   	ret
    2117:	55                   	push   ebp
    2118:	89 e5                	mov    ebp,esp
    211a:	53                   	push   ebx
    211b:	83 ec 10             	sub    esp,0x10
    211e:	8b 45 0c             	mov    eax,DWORD PTR [ebp+0xc]
    2121:	50                   	push   eax
    2122:	ff 75 08             	push   DWORD PTR [ebp+0x8]
    2125:	e8 59 ff ff ff       	call   0x2083
    212a:	83 c4 08             	add    esp,0x8
    212d:	84 c0                	test   al,al
    212f:	75 07                	jne    0x2138
    2131:	b8 00 00 00 00       	mov    eax,0x0
    2136:	eb 38                	jmp    0x2170
    2138:	8b 55 08             	mov    edx,DWORD PTR [ebp+0x8]
    213b:	8b 45 0c             	mov    eax,DWORD PTR [ebp+0xc]
    213e:	8b 00                	mov    eax,DWORD PTR [eax]
    2140:	89 c1                	mov    ecx,eax
    2142:	89 d0                	mov    eax,edx
    2144:	29 c8                	sub    eax,ecx
    2146:	89 45 f8             	mov    DWORD PTR [ebp-0x8],eax
    2149:	8b 45 0c             	mov    eax,DWORD PTR [ebp+0xc]
    214c:	8b 00                	mov    eax,DWORD PTR [eax]
    214e:	89 c2                	mov    edx,eax
    2150:	8b 45 f8             	mov    eax,DWORD PTR [ebp-0x8]
    2153:	8d 1c 02             	lea    ebx,[edx+eax*1]
    2156:	8b 45 0c             	mov    eax,DWORD PTR [ebp+0xc]
    2159:	8b 48 08             	mov    ecx,DWORD PTR [eax+0x8]
    215c:	8b 45 f8             	mov    eax,DWORD PTR [ebp-0x8]
    215f:	ba 00 00 00 00       	mov    edx,0x0
    2164:	f7 f1                	div    ecx
    2166:	89 d8                	mov    eax,ebx
    2168:	29 d0                	sub    eax,edx
    216a:	89 45 f4             	mov    DWORD PTR [ebp-0xc],eax
    216d:	8b 45 f4             	mov    eax,DWORD PTR [ebp-0xc]
    2170:	8b 5d fc             	mov    ebx,DWORD PTR [ebp-0x4]
    2173:	c9                   	leave
    2174:	c3                   	ret
    2175:	55                   	push   ebp
    2176:	89 e5                	mov    ebp,esp
    2178:	83 ec 10             	sub    esp,0x10
    217b:	8b 45 0c             	mov    eax,DWORD PTR [ebp+0xc]
    217e:	50                   	push   eax
    217f:	ff 75 08             	push   DWORD PTR [ebp+0x8]
    2182:	e8 fc fe ff ff       	call   0x2083
    2187:	83 c4 08             	add    esp,0x8
    218a:	84 c0                	test   al,al
    218c:	75 0a                	jne    0x2198
    218e:	b8 00 00 00 00       	mov    eax,0x0
    2193:	e9 85 00 00 00       	jmp    0x221d
    2198:	8b 45 0c             	mov    eax,DWORD PTR [ebp+0xc]
    219b:	8b 00                	mov    eax,DWORD PTR [eax]
    219d:	89 45 fc             	mov    DWORD PTR [ebp-0x4],eax
    21a0:	eb 67                	jmp    0x2209
    21a2:	8b 45 fc             	mov    eax,DWORD PTR [ebp-0x4]
    21a5:	0f b7 00             	movzx  eax,WORD PTR [eax]
    21a8:	66 85 c0             	test   ax,ax
    21ab:	74 51                	je     0x21fe
    21ad:	8b 45 fc             	mov    eax,DWORD PTR [ebp-0x4]
    21b0:	89 45 f8             	mov    DWORD PTR [ebp-0x8],eax
    21b3:	8b 45 fc             	mov    eax,DWORD PTR [ebp-0x4]
    21b6:	0f b7 00             	movzx  eax,WORD PTR [eax]
    21b9:	0f b7 d0             	movzx  edx,ax
    21bc:	8b 45 0c             	mov    eax,DWORD PTR [ebp+0xc]
    21bf:	8b 40 08             	mov    eax,DWORD PTR [eax+0x8]
    21c2:	0f af d0             	imul   edx,eax
    21c5:	8b 45 f8             	mov    eax,DWORD PTR [ebp-0x8]
    21c8:	01 d0                	add    eax,edx
    21ca:	89 45 f4             	mov    DWORD PTR [ebp-0xc],eax
    21cd:	8b 45 08             	mov    eax,DWORD PTR [ebp+0x8]
    21d0:	3b 45 f8             	cmp    eax,DWORD PTR [ebp-0x8]
    21d3:	72 0d                	jb     0x21e2
    21d5:	8b 45 08             	mov    eax,DWORD PTR [ebp+0x8]
    21d8:	3b 45 f4             	cmp    eax,DWORD PTR [ebp-0xc]
    21db:	73 05                	jae    0x21e2
    21dd:	8b 45 fc             	mov    eax,DWORD PTR [ebp-0x4]
    21e0:	eb 3b                	jmp    0x221d
    21e2:	8b 45 fc             	mov    eax,DWORD PTR [ebp-0x4]
    21e5:	0f b7 00             	movzx  eax,WORD PTR [eax]
    21e8:	0f b7 d0             	movzx  edx,ax
    21eb:	8b 45 0c             	mov    eax,DWORD PTR [ebp+0xc]
    21ee:	8b 40 08             	mov    eax,DWORD PTR [eax+0x8]
    21f1:	0f af d0             	imul   edx,eax
    21f4:	8b 45 fc             	mov    eax,DWORD PTR [ebp-0x4]
    21f7:	01 d0                	add    eax,edx
    21f9:	89 45 fc             	mov    DWORD PTR [ebp-0x4],eax
    21fc:	eb 0b                	jmp    0x2209
    21fe:	8b 45 0c             	mov    eax,DWORD PTR [ebp+0xc]
    2201:	8b 40 08             	mov    eax,DWORD PTR [eax+0x8]
    2204:	01 c0                	add    eax,eax
    2206:	01 45 fc             	add    DWORD PTR [ebp-0x4],eax
    2209:	8b 45 0c             	mov    eax,DWORD PTR [ebp+0xc]
    220c:	8b 40 04             	mov    eax,DWORD PTR [eax+0x4]
    220f:	89 c2                	mov    edx,eax
    2211:	8b 45 fc             	mov    eax,DWORD PTR [ebp-0x4]
    2214:	39 d0                	cmp    eax,edx
    2216:	72 8a                	jb     0x21a2
    2218:	b8 00 00 00 00       	mov    eax,0x0
    221d:	c9                   	leave
    221e:	c3                   	ret
    221f:	55                   	push   ebp
    2220:	89 e5                	mov    ebp,esp
    2222:	53                   	push   ebx
    2223:	83 ec 20             	sub    esp,0x20
    2226:	8b 45 08             	mov    eax,DWORD PTR [ebp+0x8]
    2229:	8d 48 02             	lea    ecx,[eax+0x2]
    222c:	8b 45 0c             	mov    eax,DWORD PTR [ebp+0xc]
    222f:	8b 58 08             	mov    ebx,DWORD PTR [eax+0x8]
    2232:	89 c8                	mov    eax,ecx
    2234:	ba 00 00 00 00       	mov    edx,0x0
    2239:	f7 f3                	div    ebx
    223b:	89 45 f8             	mov    DWORD PTR [ebp-0x8],eax
    223e:	8b 45 08             	mov    eax,DWORD PTR [ebp+0x8]
    2241:	8d 50 02             	lea    edx,[eax+0x2]
    2244:	8b 45 0c             	mov    eax,DWORD PTR [ebp+0xc]
    2247:	8b 48 08             	mov    ecx,DWORD PTR [eax+0x8]
    224a:	89 d0                	mov    eax,edx
    224c:	ba 00 00 00 00       	mov    edx,0x0
    2251:	f7 f1                	div    ecx
    2253:	89 d0                	mov    eax,edx
    2255:	85 c0                	test   eax,eax
    2257:	74 04                	je     0x225d
    2259:	83 45 f8 01          	add    DWORD PTR [ebp-0x8],0x1
    225d:	8b 45 0c             	mov    eax,DWORD PTR [ebp+0xc]
    2260:	8b 40 04             	mov    eax,DWORD PTR [eax+0x4]
    2263:	89 45 e8             	mov    DWORD PTR [ebp-0x18],eax
    2266:	8b 45 0c             	mov    eax,DWORD PTR [ebp+0xc]
    2269:	8b 00                	mov    eax,DWORD PTR [eax]
    226b:	89 45 f4             	mov    DWORD PTR [ebp-0xc],eax
    226e:	8b 45 0c             	mov    eax,DWORD PTR [ebp+0xc]
    2271:	8b 00                	mov    eax,DWORD PTR [eax]
    2273:	89 45 f0             	mov    DWORD PTR [ebp-0x10],eax
    2276:	c7 45 ec 00 00 00 00 	mov    DWORD PTR [ebp-0x14],0x0
    227d:	eb 6e                	jmp    0x22ed
    227f:	8b 45 f4             	mov    eax,DWORD PTR [ebp-0xc]
    2282:	0f b7 00             	movzx  eax,WORD PTR [eax]
    2285:	66 85 c0             	test   ax,ax
    2288:	74 2a                	je     0x22b4
    228a:	8b 45 f4             	mov    eax,DWORD PTR [ebp-0xc]
    228d:	0f b7 00             	movzx  eax,WORD PTR [eax]
    2290:	0f b7 d0             	movzx  edx,ax
    2293:	8b 45 0c             	mov    eax,DWORD PTR [ebp+0xc]
    2296:	8b 40 08             	mov    eax,DWORD PTR [eax+0x8]
    2299:	0f af d0             	imul   edx,eax
    229c:	8b 45 f4             	mov    eax,DWORD PTR [ebp-0xc]
    229f:	01 d0                	add    eax,edx
    22a1:	89 45 f4             	mov    DWORD PTR [ebp-0xc],eax
    22a4:	c7 45 f0 00 00 00 00 	mov    DWORD PTR [ebp-0x10],0x0
    22ab:	c7 45 ec 00 00 00 00 	mov    DWORD PTR [ebp-0x14],0x0
    22b2:	eb 1e                	jmp    0x22d2
    22b4:	83 7d f0 00          	cmp    DWORD PTR [ebp-0x10],0x0
    22b8:	75 06                	jne    0x22c0
    22ba:	8b 45 f4             	mov    eax,DWORD PTR [ebp-0xc]
    22bd:	89 45 f0             	mov    DWORD PTR [ebp-0x10],eax
    22c0:	83 45 ec 01          	add    DWORD PTR [ebp-0x14],0x1
    22c4:	8b 45 0c             	mov    eax,DWORD PTR [ebp+0xc]
    22c7:	8b 50 08             	mov    edx,DWORD PTR [eax+0x8]
    22ca:	8b 45 f4             	mov    eax,DWORD PTR [ebp-0xc]
    22cd:	01 d0                	add    eax,edx
    22cf:	89 45 f4             	mov    DWORD PTR [ebp-0xc],eax
    22d2:	8b 45 ec             	mov    eax,DWORD PTR [ebp-0x14]
    22d5:	3b 45 f8             	cmp    eax,DWORD PTR [ebp-0x8]
    22d8:	72 13                	jb     0x22ed
    22da:	8b 45 f8             	mov    eax,DWORD PTR [ebp-0x8]
    22dd:	89 c2                	mov    edx,eax
    22df:	8b 45 f0             	mov    eax,DWORD PTR [ebp-0x10]
    22e2:	66 89 10             	mov    WORD PTR [eax],dx
    22e5:	8b 45 f0             	mov    eax,DWORD PTR [ebp-0x10]
    22e8:	83 c0 02             	add    eax,0x2
    22eb:	eb 0d                	jmp    0x22fa
    22ed:	8b 45 f4             	mov    eax,DWORD PTR [ebp-0xc]
    22f0:	3b 45 e8             	cmp    eax,DWORD PTR [ebp-0x18]
    22f3:	72 8a                	jb     0x227f
    22f5:	b8 00 00 00 00       	mov    eax,0x0
    22fa:	8b 5d fc             	mov    ebx,DWORD PTR [ebp-0x4]
    22fd:	c9                   	leave
    22fe:	c3                   	ret
    22ff:	55                   	push   ebp
    2300:	89 e5                	mov    ebp,esp
    2302:	53                   	push   ebx
    2303:	83 ec 10             	sub    esp,0x10
    2306:	8b 45 10             	mov    eax,DWORD PTR [ebp+0x10]
    2309:	50                   	push   eax
    230a:	ff 75 08             	push   DWORD PTR [ebp+0x8]
    230d:	e8 05 fe ff ff       	call   0x2117
    2312:	83 c4 08             	add    esp,0x8
    2315:	89 45 f4             	mov    DWORD PTR [ebp-0xc],eax
    2318:	83 7d f4 00          	cmp    DWORD PTR [ebp-0xc],0x0
    231c:	75 0a                	jne    0x2328
    231e:	b8 00 00 00 00       	mov    eax,0x0
    2323:	e9 99 00 00 00       	jmp    0x23c1
    2328:	8b 45 f4             	mov    eax,DWORD PTR [ebp-0xc]
    232b:	0f b7 00             	movzx  eax,WORD PTR [eax]
    232e:	66 85 c0             	test   ax,ax
    2331:	74 0a                	je     0x233d
    2333:	b8 00 00 00 00       	mov    eax,0x0
    2338:	e9 84 00 00 00       	jmp    0x23c1
    233d:	8b 45 10             	mov    eax,DWORD PTR [ebp+0x10]
    2340:	8b 4d 08             	mov    ecx,DWORD PTR [ebp+0x8]
    2343:	8b 55 0c             	mov    edx,DWORD PTR [ebp+0xc]
    2346:	01 ca                	add    edx,ecx
    2348:	50                   	push   eax
    2349:	52                   	push   edx
    234a:	e8 62 fd ff ff       	call   0x20b1
    234f:	83 c4 08             	add    esp,0x8
    2352:	89 45 f0             	mov    DWORD PTR [ebp-0x10],eax
    2355:	8b 45 f0             	mov    eax,DWORD PTR [ebp-0x10]
    2358:	8b 55 f4             	mov    edx,DWORD PTR [ebp-0xc]
    235b:	39 c2                	cmp    edx,eax
    235d:	72 07                	jb     0x2366
    235f:	b8 00 00 00 00       	mov    eax,0x0
    2364:	eb 5b                	jmp    0x23c1
    2366:	8b 55 f0             	mov    edx,DWORD PTR [ebp-0x10]
    2369:	8b 45 f4             	mov    eax,DWORD PTR [ebp-0xc]
    236c:	89 d1                	mov    ecx,edx
    236e:	29 c1                	sub    ecx,eax
    2370:	8b 45 10             	mov    eax,DWORD PTR [ebp+0x10]
    2373:	8b 58 08             	mov    ebx,DWORD PTR [eax+0x8]
    2376:	89 c8                	mov    eax,ecx
    2378:	ba 00 00 00 00       	mov    edx,0x0
    237d:	f7 f3                	div    ebx
    237f:	89 45 ec             	mov    DWORD PTR [ebp-0x14],eax
    2382:	c7 45 f8 00 00 00 00 	mov    DWORD PTR [ebp-0x8],0x0
    2389:	eb 1e                	jmp    0x23a9
    238b:	8b 45 f8             	mov    eax,DWORD PTR [ebp-0x8]
    238e:	8d 14 00             	lea    edx,[eax+eax*1]
    2391:	8b 45 f4             	mov    eax,DWORD PTR [ebp-0xc]
    2394:	01 d0                	add    eax,edx
    2396:	0f b7 00             	movzx  eax,WORD PTR [eax]
    2399:	66 85 c0             	test   ax,ax
    239c:	74 07                	je     0x23a5
    239e:	b8 00 00 00 00       	mov    eax,0x0
    23a3:	eb 1c                	jmp    0x23c1
    23a5:	83 45 f8 01          	add    DWORD PTR [ebp-0x8],0x1
    23a9:	8b 45 f8             	mov    eax,DWORD PTR [ebp-0x8]
    23ac:	3b 45 ec             	cmp    eax,DWORD PTR [ebp-0x14]
    23af:	72 da                	jb     0x238b
    23b1:	8b 45 ec             	mov    eax,DWORD PTR [ebp-0x14]
    23b4:	89 c2                	mov    edx,eax
    23b6:	8b 45 f4             	mov    eax,DWORD PTR [ebp-0xc]
    23b9:	66 89 10             	mov    WORD PTR [eax],dx
    23bc:	b8 01 00 00 00       	mov    eax,0x1
    23c1:	8b 5d fc             	mov    ebx,DWORD PTR [ebp-0x4]
    23c4:	c9                   	leave
    23c5:	c3                   	ret
    23c6:	55                   	push   ebp
    23c7:	89 e5                	mov    ebp,esp
    23c9:	83 ec 10             	sub    esp,0x10
    23cc:	8b 45 0c             	mov    eax,DWORD PTR [ebp+0xc]
    23cf:	50                   	push   eax
    23d0:	ff 75 08             	push   DWORD PTR [ebp+0x8]
    23d3:	e8 9d fd ff ff       	call   0x2175
    23d8:	83 c4 08             	add    esp,0x8
    23db:	89 45 f8             	mov    DWORD PTR [ebp-0x8],eax
    23de:	83 7d f8 00          	cmp    DWORD PTR [ebp-0x8],0x0
    23e2:	75 07                	jne    0x23eb
    23e4:	b8 00 00 00 00       	mov    eax,0x0
    23e9:	eb 3c                	jmp    0x2427
    23eb:	8b 45 f8             	mov    eax,DWORD PTR [ebp-0x8]
    23ee:	0f b7 00             	movzx  eax,WORD PTR [eax]
    23f1:	0f b7 c0             	movzx  eax,ax
    23f4:	89 45 f4             	mov    DWORD PTR [ebp-0xc],eax
    23f7:	c7 45 fc 00 00 00 00 	mov    DWORD PTR [ebp-0x4],0x0
    23fe:	eb 1a                	jmp    0x241a
    2400:	8b 45 0c             	mov    eax,DWORD PTR [ebp+0xc]
    2403:	8b 40 08             	mov    eax,DWORD PTR [eax+0x8]
    2406:	0f af 45 fc          	imul   eax,DWORD PTR [ebp-0x4]
    240a:	89 c2                	mov    edx,eax
    240c:	8b 45 f8             	mov    eax,DWORD PTR [ebp-0x8]
    240f:	01 d0                	add    eax,edx
    2411:	66 c7 00 00 00       	mov    WORD PTR [eax],0x0
    2416:	83 45 fc 01          	add    DWORD PTR [ebp-0x4],0x1
    241a:	8b 45 fc             	mov    eax,DWORD PTR [ebp-0x4]
    241d:	3b 45 f4             	cmp    eax,DWORD PTR [ebp-0xc]
    2420:	72 de                	jb     0x2400
    2422:	b8 01 00 00 00       	mov    eax,0x1
    2427:	c9                   	leave
    2428:	c3                   	ret
    2429:	55                   	push   ebp
    242a:	89 e5                	mov    ebp,esp
    242c:	83 ec 10             	sub    esp,0x10
    242f:	8b 45 08             	mov    eax,DWORD PTR [ebp+0x8]
    2432:	8b 00                	mov    eax,DWORD PTR [eax]
    2434:	89 45 fc             	mov    DWORD PTR [ebp-0x4],eax
    2437:	eb 16                	jmp    0x244f
    2439:	8b 45 fc             	mov    eax,DWORD PTR [ebp-0x4]
    243c:	66 c7 00 00 00       	mov    WORD PTR [eax],0x0
    2441:	8b 45 08             	mov    eax,DWORD PTR [ebp+0x8]
    2444:	8b 50 08             	mov    edx,DWORD PTR [eax+0x8]
    2447:	8b 45 fc             	mov    eax,DWORD PTR [ebp-0x4]
    244a:	01 d0                	add    eax,edx
    244c:	89 45 fc             	mov    DWORD PTR [ebp-0x4],eax
    244f:	8b 45 08             	mov    eax,DWORD PTR [ebp+0x8]
    2452:	8b 40 04             	mov    eax,DWORD PTR [eax+0x4]
    2455:	89 c2                	mov    edx,eax
    2457:	8b 45 fc             	mov    eax,DWORD PTR [ebp-0x4]
    245a:	39 c2                	cmp    edx,eax
    245c:	73 db                	jae    0x2439
    245e:	90                   	nop
    245f:	90                   	nop
    2460:	c9                   	leave
    2461:	c3                   	ret
    2462:	55                   	push   ebp
    2463:	89 e5                	mov    ebp,esp
    2465:	83 ec 10             	sub    esp,0x10
    2468:	8b 45 10             	mov    eax,DWORD PTR [ebp+0x10]
    246b:	89 45 fc             	mov    DWORD PTR [ebp-0x4],eax
    246e:	8b 45 fc             	mov    eax,DWORD PTR [ebp-0x4]
    2471:	8b 55 08             	mov    edx,DWORD PTR [ebp+0x8]
    2474:	89 10                	mov    DWORD PTR [eax],edx
    2476:	8b 45 fc             	mov    eax,DWORD PTR [ebp-0x4]
    2479:	8b 55 0c             	mov    edx,DWORD PTR [ebp+0xc]
    247c:	89 50 04             	mov    DWORD PTR [eax+0x4],edx
    247f:	8b 45 fc             	mov    eax,DWORD PTR [ebp-0x4]
    2482:	8b 55 14             	mov    edx,DWORD PTR [ebp+0x14]
    2485:	89 50 08             	mov    DWORD PTR [eax+0x8],edx
    2488:	8b 45 fc             	mov    eax,DWORD PTR [ebp-0x4]
    248b:	c6 40 0c 00          	mov    BYTE PTR [eax+0xc],0x0
    248f:	8b 45 fc             	mov    eax,DWORD PTR [ebp-0x4]
    2492:	50                   	push   eax
    2493:	e8 91 ff ff ff       	call   0x2429
    2498:	83 c4 04             	add    esp,0x4
    249b:	8b 45 fc             	mov    eax,DWORD PTR [ebp-0x4]
    249e:	c9                   	leave
    249f:	c3                   	ret
    24a0:	55                   	push   ebp
    24a1:	89 e5                	mov    ebp,esp
    24a3:	83 ec 10             	sub    esp,0x10
    24a6:	8b 45 08             	mov    eax,DWORD PTR [ebp+0x8]
    24a9:	83 c0 10             	add    eax,0x10
    24ac:	89 45 fc             	mov    DWORD PTR [ebp-0x4],eax
    24af:	ff 75 10             	push   DWORD PTR [ebp+0x10]
    24b2:	ff 75 08             	push   DWORD PTR [ebp+0x8]
    24b5:	ff 75 0c             	push   DWORD PTR [ebp+0xc]
    24b8:	ff 75 fc             	push   DWORD PTR [ebp-0x4]
    24bb:	e8 a2 ff ff ff       	call   0x2462
    24c0:	83 c4 10             	add    esp,0x10
    24c3:	c9                   	leave
    24c4:	c3                   	ret
    24c5:	55                   	push   ebp
    24c6:	89 e5                	mov    ebp,esp
    24c8:	83 ec 18             	sub    esp,0x18
    24cb:	8b 45 0c             	mov    eax,DWORD PTR [ebp+0xc]
    24ce:	83 c0 0c             	add    eax,0xc
    24d1:	83 ec 0c             	sub    esp,0xc
    24d4:	50                   	push   eax
    24d5:	e8 15 0a 00 00       	call   0x2eef
    24da:	83 c4 10             	add    esp,0x10
    24dd:	8b 45 0c             	mov    eax,DWORD PTR [ebp+0xc]
    24e0:	83 ec 08             	sub    esp,0x8
    24e3:	50                   	push   eax
    24e4:	ff 75 08             	push   DWORD PTR [ebp+0x8]
    24e7:	e8 33 fd ff ff       	call   0x221f
    24ec:	83 c4 10             	add    esp,0x10
    24ef:	89 45 f4             	mov    DWORD PTR [ebp-0xc],eax
    24f2:	8b 45 0c             	mov    eax,DWORD PTR [ebp+0xc]
    24f5:	83 c0 0c             	add    eax,0xc
    24f8:	83 ec 0c             	sub    esp,0xc
    24fb:	50                   	push   eax
    24fc:	e8 1f 0a 00 00       	call   0x2f20
    2501:	83 c4 10             	add    esp,0x10
    2504:	8b 45 f4             	mov    eax,DWORD PTR [ebp-0xc]
    2507:	c9                   	leave
    2508:	c3                   	ret
    2509:	55                   	push   ebp
    250a:	89 e5                	mov    ebp,esp
    250c:	83 ec 18             	sub    esp,0x18
    250f:	8b 45 10             	mov    eax,DWORD PTR [ebp+0x10]
    2512:	83 c0 0c             	add    eax,0xc
    2515:	83 ec 0c             	sub    esp,0xc
    2518:	50                   	push   eax
    2519:	e8 d1 09 00 00       	call   0x2eef
    251e:	83 c4 10             	add    esp,0x10
    2521:	8b 55 10             	mov    edx,DWORD PTR [ebp+0x10]
    2524:	8b 45 08             	mov    eax,DWORD PTR [ebp+0x8]
    2527:	0f af 45 0c          	imul   eax,DWORD PTR [ebp+0xc]
    252b:	83 ec 08             	sub    esp,0x8
    252e:	52                   	push   edx
    252f:	50                   	push   eax
    2530:	e8 ea fc ff ff       	call   0x221f
    2535:	83 c4 10             	add    esp,0x10
    2538:	89 45 f4             	mov    DWORD PTR [ebp-0xc],eax
    253b:	8b 45 10             	mov    eax,DWORD PTR [ebp+0x10]
    253e:	83 c0 0c             	add    eax,0xc
    2541:	83 ec 0c             	sub    esp,0xc
    2544:	50                   	push   eax
    2545:	e8 d6 09 00 00       	call   0x2f20
    254a:	83 c4 10             	add    esp,0x10
    254d:	8b 45 f4             	mov    eax,DWORD PTR [ebp-0xc]
    2550:	c9                   	leave
    2551:	c3                   	ret
    2552:	55                   	push   ebp
    2553:	89 e5                	mov    ebp,esp
    2555:	83 ec 18             	sub    esp,0x18
    2558:	8b 45 10             	mov    eax,DWORD PTR [ebp+0x10]
    255b:	83 c0 0c             	add    eax,0xc
    255e:	83 ec 0c             	sub    esp,0xc
    2561:	50                   	push   eax
    2562:	e8 88 09 00 00       	call   0x2eef
    2567:	83 c4 10             	add    esp,0x10
    256a:	8b 45 10             	mov    eax,DWORD PTR [ebp+0x10]
    256d:	83 ec 04             	sub    esp,0x4
    2570:	50                   	push   eax
    2571:	ff 75 0c             	push   DWORD PTR [ebp+0xc]
    2574:	ff 75 08             	push   DWORD PTR [ebp+0x8]
    2577:	e8 83 fd ff ff       	call   0x22ff
    257c:	83 c4 10             	add    esp,0x10
    257f:	88 45 f7             	mov    BYTE PTR [ebp-0x9],al
    2582:	8b 45 10             	mov    eax,DWORD PTR [ebp+0x10]
    2585:	83 c0 0c             	add    eax,0xc
    2588:	83 ec 0c             	sub    esp,0xc
    258b:	50                   	push   eax
    258c:	e8 8f 09 00 00       	call   0x2f20
    2591:	83 c4 10             	add    esp,0x10
    2594:	0f b6 45 f7          	movzx  eax,BYTE PTR [ebp-0x9]
    2598:	c9                   	leave
    2599:	c3                   	ret
    259a:	55                   	push   ebp
    259b:	89 e5                	mov    ebp,esp
    259d:	83 ec 18             	sub    esp,0x18
    25a0:	8b 45 0c             	mov    eax,DWORD PTR [ebp+0xc]
    25a3:	83 c0 0c             	add    eax,0xc
    25a6:	83 ec 0c             	sub    esp,0xc
    25a9:	50                   	push   eax
    25aa:	e8 40 09 00 00       	call   0x2eef
    25af:	83 c4 10             	add    esp,0x10
    25b2:	8b 45 0c             	mov    eax,DWORD PTR [ebp+0xc]
    25b5:	83 ec 08             	sub    esp,0x8
    25b8:	50                   	push   eax
    25b9:	ff 75 08             	push   DWORD PTR [ebp+0x8]
    25bc:	e8 05 fe ff ff       	call   0x23c6
    25c1:	83 c4 10             	add    esp,0x10
    25c4:	88 45 f7             	mov    BYTE PTR [ebp-0x9],al
    25c7:	8b 45 0c             	mov    eax,DWORD PTR [ebp+0xc]
    25ca:	83 c0 0c             	add    eax,0xc
    25cd:	83 ec 0c             	sub    esp,0xc
    25d0:	50                   	push   eax
    25d1:	e8 4a 09 00 00       	call   0x2f20
    25d6:	83 c4 10             	add    esp,0x10
    25d9:	0f b6 45 f7          	movzx  eax,BYTE PTR [ebp-0x9]
    25dd:	c9                   	leave
    25de:	c3                   	ret
    25df:	55                   	push   ebp
    25e0:	89 e5                	mov    ebp,esp
    25e2:	83 ec 08             	sub    esp,0x8
    25e5:	8b 45 08             	mov    eax,DWORD PTR [ebp+0x8]
    25e8:	83 c0 0c             	add    eax,0xc
    25eb:	83 ec 0c             	sub    esp,0xc
    25ee:	50                   	push   eax
    25ef:	e8 fb 08 00 00       	call   0x2eef
    25f4:	83 c4 10             	add    esp,0x10
    25f7:	8b 45 08             	mov    eax,DWORD PTR [ebp+0x8]
    25fa:	83 ec 0c             	sub    esp,0xc
    25fd:	50                   	push   eax
    25fe:	e8 26 fe ff ff       	call   0x2429
    2603:	83 c4 10             	add    esp,0x10
    2606:	8b 45 08             	mov    eax,DWORD PTR [ebp+0x8]
    2609:	83 c0 0c             	add    eax,0xc
    260c:	83 ec 0c             	sub    esp,0xc
    260f:	50                   	push   eax
    2610:	e8 0b 09 00 00       	call   0x2f20
    2615:	83 c4 10             	add    esp,0x10
    2618:	90                   	nop
    2619:	c9                   	leave
    261a:	c3                   	ret
    261b:	55                   	push   ebp
    261c:	89 e5                	mov    ebp,esp
    261e:	83 ec 08             	sub    esp,0x8
    2621:	a1 00 20 03 00       	mov    eax,ds:0x32000
    2626:	85 c0                	test   eax,eax
    2628:	74 32                	je     0x265c
    262a:	a1 00 20 03 00       	mov    eax,ds:0x32000
    262f:	83 c0 0c             	add    eax,0xc
    2632:	83 ec 0c             	sub    esp,0xc
    2635:	50                   	push   eax
    2636:	e8 b4 08 00 00       	call   0x2eef
    263b:	83 c4 10             	add    esp,0x10
    263e:	8b 45 08             	mov    eax,DWORD PTR [ebp+0x8]
    2641:	a3 00 20 03 00       	mov    ds:0x32000,eax
    2646:	a1 00 20 03 00       	mov    eax,ds:0x32000
    264b:	83 c0 0c             	add    eax,0xc
    264e:	83 ec 0c             	sub    esp,0xc
    2651:	50                   	push   eax
    2652:	e8 c9 08 00 00       	call   0x2f20
    2657:	83 c4 10             	add    esp,0x10
    265a:	eb 08                	jmp    0x2664
    265c:	8b 45 08             	mov    eax,DWORD PTR [ebp+0x8]
    265f:	a3 00 20 03 00       	mov    ds:0x32000,eax
    2664:	90                   	nop
    2665:	c9                   	leave
    2666:	c3                   	ret
    2667:	55                   	push   ebp
    2668:	89 e5                	mov    ebp,esp
    266a:	83 ec 18             	sub    esp,0x18
    266d:	a1 00 20 03 00       	mov    eax,ds:0x32000
    2672:	85 c0                	test   eax,eax
    2674:	74 44                	je     0x26ba
    2676:	a1 00 20 03 00       	mov    eax,ds:0x32000
    267b:	83 c0 0c             	add    eax,0xc
    267e:	83 ec 0c             	sub    esp,0xc
    2681:	50                   	push   eax
    2682:	e8 68 08 00 00       	call   0x2eef
    2687:	83 c4 10             	add    esp,0x10
    268a:	a1 00 20 03 00       	mov    eax,ds:0x32000
    268f:	83 ec 08             	sub    esp,0x8
    2692:	50                   	push   eax
    2693:	ff 75 08             	push   DWORD PTR [ebp+0x8]
    2696:	e8 84 fb ff ff       	call   0x221f
    269b:	83 c4 10             	add    esp,0x10
    269e:	89 45 f4             	mov    DWORD PTR [ebp-0xc],eax
    26a1:	a1 00 20 03 00       	mov    eax,ds:0x32000
    26a6:	83 c0 0c             	add    eax,0xc
    26a9:	83 ec 0c             	sub    esp,0xc
    26ac:	50                   	push   eax
    26ad:	e8 6e 08 00 00       	call   0x2f20
    26b2:	83 c4 10             	add    esp,0x10
    26b5:	8b 45 f4             	mov    eax,DWORD PTR [ebp-0xc]
    26b8:	eb 05                	jmp    0x26bf
    26ba:	b8 00 00 00 00       	mov    eax,0x0
    26bf:	c9                   	leave
    26c0:	c3                   	ret
    26c1:	55                   	push   ebp
    26c2:	89 e5                	mov    ebp,esp
    26c4:	83 ec 18             	sub    esp,0x18
    26c7:	a1 00 20 03 00       	mov    eax,ds:0x32000
    26cc:	85 c0                	test   eax,eax
    26ce:	74 4a                	je     0x271a
    26d0:	a1 00 20 03 00       	mov    eax,ds:0x32000
    26d5:	83 c0 0c             	add    eax,0xc
    26d8:	83 ec 0c             	sub    esp,0xc
    26db:	50                   	push   eax
    26dc:	e8 0e 08 00 00       	call   0x2eef
    26e1:	83 c4 10             	add    esp,0x10
    26e4:	8b 15 00 20 03 00    	mov    edx,DWORD PTR ds:0x32000
    26ea:	8b 45 08             	mov    eax,DWORD PTR [ebp+0x8]
    26ed:	0f af 45 0c          	imul   eax,DWORD PTR [ebp+0xc]
    26f1:	83 ec 08             	sub    esp,0x8
    26f4:	52                   	push   edx
    26f5:	50                   	push   eax
    26f6:	e8 24 fb ff ff       	call   0x221f
    26fb:	83 c4 10             	add    esp,0x10
    26fe:	89 45 f4             	mov    DWORD PTR [ebp-0xc],eax
    2701:	a1 00 20 03 00       	mov    eax,ds:0x32000
    2706:	83 c0 0c             	add    eax,0xc
    2709:	83 ec 0c             	sub    esp,0xc
    270c:	50                   	push   eax
    270d:	e8 0e 08 00 00       	call   0x2f20
    2712:	83 c4 10             	add    esp,0x10
    2715:	8b 45 f4             	mov    eax,DWORD PTR [ebp-0xc]
    2718:	eb 05                	jmp    0x271f
    271a:	b8 00 00 00 00       	mov    eax,0x0
    271f:	c9                   	leave
    2720:	c3                   	ret
    2721:	55                   	push   ebp
    2722:	89 e5                	mov    ebp,esp
    2724:	83 ec 18             	sub    esp,0x18
    2727:	a1 00 20 03 00       	mov    eax,ds:0x32000
    272c:	85 c0                	test   eax,eax
    272e:	74 48                	je     0x2778
    2730:	a1 00 20 03 00       	mov    eax,ds:0x32000
    2735:	83 c0 0c             	add    eax,0xc
    2738:	83 ec 0c             	sub    esp,0xc
    273b:	50                   	push   eax
    273c:	e8 ae 07 00 00       	call   0x2eef
    2741:	83 c4 10             	add    esp,0x10
    2744:	a1 00 20 03 00       	mov    eax,ds:0x32000
    2749:	83 ec 04             	sub    esp,0x4
    274c:	50                   	push   eax
    274d:	ff 75 0c             	push   DWORD PTR [ebp+0xc]
    2750:	ff 75 08             	push   DWORD PTR [ebp+0x8]
    2753:	e8 a7 fb ff ff       	call   0x22ff
    2758:	83 c4 10             	add    esp,0x10
    275b:	88 45 f7             	mov    BYTE PTR [ebp-0x9],al
    275e:	a1 00 20 03 00       	mov    eax,ds:0x32000
    2763:	83 c0 0c             	add    eax,0xc
    2766:	83 ec 0c             	sub    esp,0xc
    2769:	50                   	push   eax
    276a:	e8 b1 07 00 00       	call   0x2f20
    276f:	83 c4 10             	add    esp,0x10
    2772:	0f b6 45 f7          	movzx  eax,BYTE PTR [ebp-0x9]
    2776:	eb 05                	jmp    0x277d
    2778:	b8 00 00 00 00       	mov    eax,0x0
    277d:	c9                   	leave
    277e:	c3                   	ret
    277f:	55                   	push   ebp
    2780:	89 e5                	mov    ebp,esp
    2782:	83 ec 18             	sub    esp,0x18
    2785:	a1 00 20 03 00       	mov    eax,ds:0x32000
    278a:	85 c0                	test   eax,eax
    278c:	74 45                	je     0x27d3
    278e:	a1 00 20 03 00       	mov    eax,ds:0x32000
    2793:	83 c0 0c             	add    eax,0xc
    2796:	83 ec 0c             	sub    esp,0xc
    2799:	50                   	push   eax
    279a:	e8 50 07 00 00       	call   0x2eef
    279f:	83 c4 10             	add    esp,0x10
    27a2:	a1 00 20 03 00       	mov    eax,ds:0x32000
    27a7:	83 ec 08             	sub    esp,0x8
    27aa:	50                   	push   eax
    27ab:	ff 75 08             	push   DWORD PTR [ebp+0x8]
    27ae:	e8 13 fc ff ff       	call   0x23c6
    27b3:	83 c4 10             	add    esp,0x10
    27b6:	88 45 f7             	mov    BYTE PTR [ebp-0x9],al
    27b9:	a1 00 20 03 00       	mov    eax,ds:0x32000
    27be:	83 c0 0c             	add    eax,0xc
    27c1:	83 ec 0c             	sub    esp,0xc
    27c4:	50                   	push   eax
    27c5:	e8 56 07 00 00       	call   0x2f20
    27ca:	83 c4 10             	add    esp,0x10
    27cd:	0f b6 45 f7          	movzx  eax,BYTE PTR [ebp-0x9]
    27d1:	eb 05                	jmp    0x27d8
    27d3:	b8 00 00 00 00       	mov    eax,0x0
    27d8:	c9                   	leave
    27d9:	c3                   	ret
    27da:	55                   	push   ebp
    27db:	89 e5                	mov    ebp,esp
    27dd:	83 ec 08             	sub    esp,0x8
    27e0:	a1 00 20 03 00       	mov    eax,ds:0x32000
    27e5:	85 c0                	test   eax,eax
    27e7:	74 39                	je     0x2822
    27e9:	a1 00 20 03 00       	mov    eax,ds:0x32000
    27ee:	83 c0 0c             	add    eax,0xc
    27f1:	83 ec 0c             	sub    esp,0xc
    27f4:	50                   	push   eax
    27f5:	e8 f5 06 00 00       	call   0x2eef
    27fa:	83 c4 10             	add    esp,0x10
    27fd:	a1 00 20 03 00       	mov    eax,ds:0x32000
    2802:	83 ec 0c             	sub    esp,0xc
    2805:	50                   	push   eax
    2806:	e8 1e fc ff ff       	call   0x2429
    280b:	83 c4 10             	add    esp,0x10
    280e:	a1 00 20 03 00       	mov    eax,ds:0x32000
    2813:	83 c0 0c             	add    eax,0xc
    2816:	83 ec 0c             	sub    esp,0xc
    2819:	50                   	push   eax
    281a:	e8 01 07 00 00       	call   0x2f20
    281f:	83 c4 10             	add    esp,0x10
    2822:	90                   	nop
    2823:	c9                   	leave
    2824:	c3                   	ret
    2825:	55                   	push   ebp
    2826:	89 e5                	mov    ebp,esp
    2828:	83 ec 10             	sub    esp,0x10
    282b:	8b 45 08             	mov    eax,DWORD PTR [ebp+0x8]
    282e:	69 c0 e8 03 00 00    	imul   eax,eax,0x3e8
    2834:	89 45 fc             	mov    DWORD PTR [ebp-0x4],eax
    2837:	c7 45 f8 00 00 00 00 	mov    DWORD PTR [ebp-0x8],0x0
    283e:	eb 0b                	jmp    0x284b
    2840:	f3 90                	pause
    2842:	8b 45 f8             	mov    eax,DWORD PTR [ebp-0x8]
    2845:	83 c0 01             	add    eax,0x1
    2848:	89 45 f8             	mov    DWORD PTR [ebp-0x8],eax
    284b:	8b 55 f8             	mov    edx,DWORD PTR [ebp-0x8]
    284e:	8b 45 fc             	mov    eax,DWORD PTR [ebp-0x4]
    2851:	39 c2                	cmp    edx,eax
    2853:	72 eb                	jb     0x2840
    2855:	90                   	nop
    2856:	c9                   	leave
    2857:	c3                   	ret
    2858:	66 90                	xchg   ax,ax
    285a:	66 90                	xchg   ax,ax
    285c:	66 90                	xchg   ax,ax
    285e:	66 90                	xchg   ax,ax
    2860:	ea 67 a8 00 00 18 00 	jmp    0x18:0xa867
    2867:	b8 20 00 8e d8       	mov    eax,0xd88e0020
    286c:	8e c0                	mov    es,eax
    286e:	8e e0                	mov    fs,eax
    2870:	8e e8                	mov    gs,eax
    2872:	8e d0                	mov    ss,eax
    2874:	0f 20 c0             	mov    eax,cr0
    2877:	66 25 ff ff          	and    ax,0xffff
    287b:	ff                   	(bad)
    287c:	7f 66                	jg     0x28e4
    287e:	83 e0 fe             	and    eax,0xfffffffe
    2881:	0f 22 c0             	mov    cr0,eax
    2884:	ea 89 a8 00 00 31 c0 	jmp    0xc031:0xa889
    288b:	8e d8                	mov    ds,eax
    288d:	8e c0                	mov    es,eax
    288f:	8e e0                	mov    fs,eax
    2891:	8e e8                	mov    gs,eax
    2893:	8e d0                	mov    ss,eax
    2895:	fa                   	cli
    2896:	66 90                	xchg   ax,ax
    2898:	66 90                	xchg   ax,ax
    289a:	66 90                	xchg   ax,ax
    289c:	66 90                	xchg   ax,ax
    289e:	66 90                	xchg   ax,ax
    28a0:	0f 20 c0             	mov    eax,cr0
    28a3:	66 83 c8 01          	or     ax,0x1
    28a7:	0f 22 c0             	mov    cr0,eax
    28aa:	ea af a8 08 00 66 b8 	jmp    0xb866:0x8a8af
    28b1:	10 00                	adc    BYTE PTR [eax],al
    28b3:	8e d8                	mov    ds,eax
    28b5:	8e c0                	mov    es,eax
    28b7:	8e e0                	mov    fs,eax
    28b9:	8e e8                	mov    gs,eax
    28bb:	8e d0                	mov    ss,eax
    28bd:	fa                   	cli
    28be:	66 90                	xchg   ax,ax
    28c0:	0f 20 e1             	mov    ecx,cr4
    28c3:	83 c9 20             	or     ecx,0x20
    28c6:	0f 22 e1             	mov    cr4,ecx
    28c9:	0f 22 d8             	mov    cr3,eax
    28cc:	b9 80 00 00 c0       	mov    ecx,0xc0000080
    28d1:	0f 32                	rdmsr
    28d3:	0d 00 09 00 00       	or     eax,0x900
    28d8:	0f 30                	wrmsr
    28da:	0f 20 c1             	mov    ecx,cr0
    28dd:	81 c9 00 00 01 80    	or     ecx,0x80010000
    28e3:	0f 22 c1             	mov    cr0,ecx
    28e6:	ea ed a8 00 00 28 00 	jmp    0x28:0xa8ed
    28ed:	66 b8 30 00          	mov    ax,0x30
    28f1:	8e d8                	mov    ds,eax
    28f3:	8e c0                	mov    es,eax
    28f5:	8e e0                	mov    fs,eax
    28f7:	8e e8                	mov    gs,eax
    28f9:	8e d0                	mov    ss,eax
    28fb:	fa                   	cli
    28fc:	66 90                	xchg   ax,ax
    28fe:	66 90                	xchg   ax,ax
    2900:	0f 01 15 54 a9 00 00 	lgdtd  ds:0xa954
    2907:	66 b8 10 00          	mov    ax,0x10
    290b:	8e d8                	mov    ds,eax
    290d:	8e c0                	mov    es,eax
    290f:	8e e0                	mov    fs,eax
    2911:	8e e8                	mov    gs,eax
    2913:	8e d0                	mov    ss,eax
    2915:	ea 5a a9 00 00 08 00 	jmp    0x8:0xa95a
	...
    2924:	ff                   	(bad)
    2925:	ff 00                	inc    DWORD PTR [eax]
    2927:	00 00                	add    BYTE PTR [eax],al
    2929:	9a cf 00 ff ff 00 00 	call   0x0:0xffff00cf
    2930:	00 92 cf 00 ff ff    	add    BYTE PTR [edx-0xff31],dl
    2936:	00 00                	add    BYTE PTR [eax],al
    2938:	00 9a 0f 00 ff ff    	add    BYTE PTR [edx-0xfff1],bl
    293e:	00 00                	add    BYTE PTR [eax],al
    2940:	00 92 0f 00 00 00    	add    BYTE PTR [edx+0xf],dl
    2946:	00 00                	add    BYTE PTR [eax],al
    2948:	00 9a 20 00 00 00    	add    BYTE PTR [edx+0x20],bl
    294e:	00 00                	add    BYTE PTR [eax],al
    2950:	00 92 00 00 37 00    	add    BYTE PTR [edx+0x370000],dl
    2956:	1c a9                	sbb    al,0xa9
    2958:	00 00                	add    BYTE PTR [eax],al
    295a:	66 90                	xchg   ax,ax
    295c:	66 90                	xchg   ax,ax
    295e:	66 90                	xchg   ax,ax
    2960:	60                   	pusha
    2961:	06                   	push   es
    2962:	31 c0                	xor    eax,eax
    2964:	8e c0                	mov    es,eax
    2966:	bf 08 aa 26 66       	mov    edi,0x6626aa08
    296b:	c7 05 56 45 53 41 b8 	mov    DWORD PTR ds:0x41534556,0xcd4f00b8
    2972:	00 4f cd 
    2975:	10 83 f8 4f 0f 85    	adc    BYTE PTR [ebx-0x7af0b008],al
    297b:	89 00                	mov    DWORD PTR [eax],eax
    297d:	31 ed                	xor    ebp,ebp
    297f:	31 d2                	xor    edx,edx
    2981:	8b 36                	mov    esi,DWORD PTR [esi]
    2983:	16                   	push   ss
    2984:	aa                   	stos   BYTE PTR es:[edi],al
    2985:	a1 18 aa 8e e0       	mov    eax,ds:0xe08eaa18
    298a:	64 8b 0c 83          	mov    ecx,DWORD PTR fs:[ebx+eax*4]
    298e:	f9                   	stc
    298f:	ff 74 59 51          	push   DWORD PTR [ecx+ebx*2+0x51]
    2993:	31 c0                	xor    eax,eax
    2995:	8e c0                	mov    es,eax
    2997:	bf 08 ac b8 01       	mov    edi,0x1b8ac08
    299c:	4f                   	dec    edi
    299d:	cd 10                	int    0x10
    299f:	59                   	pop    ecx
    29a0:	83 f8 4f             	cmp    eax,0x4f
    29a3:	75 41                	jne    0x29e6
    29a5:	a1 08 ac 25 91       	mov    eax,ds:0x9125ac08
    29aa:	00 3d 91 00 75 36    	add    BYTE PTR ds:0x36750091,bh
    29b0:	a0 21 ac 3c 20       	mov    al,ds:0x203cac21
    29b5:	75 2f                	jne    0x29e6
    29b7:	a1 1a ac 8b 1e       	mov    eax,ds:0x1e8bac1a
    29bc:	1c ac                	sbb    al,0xac
    29be:	39 e8                	cmp    eax,ebp
    29c0:	77 06                	ja     0x29c8
    29c2:	72 22                	jb     0x29e6
    29c4:	39 d3                	cmp    ebx,edx
    29c6:	76 1e                	jbe    0x29e6
    29c8:	89 c5                	mov    ebp,eax
    29ca:	89 da                	mov    edx,ebx
    29cc:	66 a1 30 ac 66 a3    	mov    ax,ds:0xa366ac30
    29d2:	08 ad 89 2e 0c ad    	or     BYTE PTR [ebp-0x52f3d177],ch
    29d8:	89 16                	mov    DWORD PTR [esi],edx
    29da:	0e                   	push   cs
    29db:	ad                   	lods   eax,DWORD PTR ds:[esi]
    29dc:	a1 18 ac a3 10       	mov    eax,ds:0x10a3ac18
    29e1:	ad                   	lods   eax,DWORD PTR ds:[esi]
    29e2:	89 0e                	mov    DWORD PTR [esi],ecx
    29e4:	12 ad 83 c6 02 eb    	adc    ch,BYTE PTR [ebp-0x14fd397d]
    29ea:	9f                   	lahf
    29eb:	85 ed                	test   ebp,ebp
    29ed:	74 17                	je     0x2a06
    29ef:	b8 02 4f 8b 1e       	mov    eax,0x1e8b4f02
    29f4:	12 ad 81 cb 00 40    	adc    ch,BYTE PTR [ebp+0x4000cb81]
    29fa:	cd 10                	int    0x10
    29fc:	83 f8 4f             	cmp    eax,0x4f
    29ff:	75 05                	jne    0x2a06
    2a01:	07                   	pop    es
    2a02:	61                   	popa
    2a03:	e9 0e 03 fa f4       	jmp    0xf4fa2d16
	...
    2d14:	55                   	push   ebp
    2d15:	89 e5                	mov    ebp,esp
    2d17:	83 ec 18             	sub    esp,0x18
    2d1a:	8b 45 0c             	mov    eax,DWORD PTR [ebp+0xc]
    2d1d:	89 45 e8             	mov    DWORD PTR [ebp-0x18],eax
    2d20:	8b 45 10             	mov    eax,DWORD PTR [ebp+0x10]
    2d23:	89 45 ec             	mov    DWORD PTR [ebp-0x14],eax
    2d26:	8b 45 08             	mov    eax,DWORD PTR [ebp+0x8]
    2d29:	8b 50 04             	mov    edx,DWORD PTR [eax+0x4]
    2d2c:	8b 00                	mov    eax,DWORD PTR [eax]
    2d2e:	25 ff 0f 00 00       	and    eax,0xfff
    2d33:	ba 00 00 00 00       	mov    edx,0x0
    2d38:	89 45 f8             	mov    DWORD PTR [ebp-0x8],eax
    2d3b:	89 55 fc             	mov    DWORD PTR [ebp-0x4],edx
    2d3e:	8b 45 e8             	mov    eax,DWORD PTR [ebp-0x18]
    2d41:	8b 55 ec             	mov    edx,DWORD PTR [ebp-0x14]
    2d44:	25 00 f0 ff ff       	and    eax,0xfffff000
    2d49:	81 e2 ff ff 0f 00    	and    edx,0xfffff
    2d4f:	89 45 f0             	mov    DWORD PTR [ebp-0x10],eax
    2d52:	89 55 f4             	mov    DWORD PTR [ebp-0xc],edx
    2d55:	8b 4d 08             	mov    ecx,DWORD PTR [ebp+0x8]
    2d58:	8b 45 f0             	mov    eax,DWORD PTR [ebp-0x10]
    2d5b:	8b 55 f4             	mov    edx,DWORD PTR [ebp-0xc]
    2d5e:	0b 45 f8             	or     eax,DWORD PTR [ebp-0x8]
    2d61:	0b 55 fc             	or     edx,DWORD PTR [ebp-0x4]
    2d64:	89 01                	mov    DWORD PTR [ecx],eax
    2d66:	89 51 04             	mov    DWORD PTR [ecx+0x4],edx
    2d69:	90                   	nop
    2d6a:	c9                   	leave
    2d6b:	c3                   	ret
    2d6c:	55                   	push   ebp
    2d6d:	89 e5                	mov    ebp,esp
    2d6f:	83 ec 10             	sub    esp,0x10
    2d72:	8b 45 08             	mov    eax,DWORD PTR [ebp+0x8]
    2d75:	8b 50 04             	mov    edx,DWORD PTR [eax+0x4]
    2d78:	8b 00                	mov    eax,DWORD PTR [eax]
    2d7a:	89 45 f8             	mov    DWORD PTR [ebp-0x8],eax
    2d7d:	89 55 fc             	mov    DWORD PTR [ebp-0x4],edx
    2d80:	8b 45 f8             	mov    eax,DWORD PTR [ebp-0x8]
    2d83:	8b 55 fc             	mov    edx,DWORD PTR [ebp-0x4]
    2d86:	25 00 f0 ff ff       	and    eax,0xfffff000
    2d8b:	81 e2 ff ff 0f 00    	and    edx,0xfffff
    2d91:	89 45 f8             	mov    DWORD PTR [ebp-0x8],eax
    2d94:	89 55 fc             	mov    DWORD PTR [ebp-0x4],edx
    2d97:	8b 45 f8             	mov    eax,DWORD PTR [ebp-0x8]
    2d9a:	8b 55 fc             	mov    edx,DWORD PTR [ebp-0x4]
    2d9d:	c9                   	leave
    2d9e:	c3                   	ret
    2d9f:	55                   	push   ebp
    2da0:	89 e5                	mov    ebp,esp
    2da2:	83 ec 08             	sub    esp,0x8
    2da5:	8b 45 0c             	mov    eax,DWORD PTR [ebp+0xc]
    2da8:	89 45 f8             	mov    DWORD PTR [ebp-0x8],eax
    2dab:	8b 45 10             	mov    eax,DWORD PTR [ebp+0x10]
    2dae:	89 45 fc             	mov    DWORD PTR [ebp-0x4],eax
    2db1:	8b 45 08             	mov    eax,DWORD PTR [ebp+0x8]
    2db4:	85 c0                	test   eax,eax
    2db6:	74 17                	je     0x2dcf
    2db8:	8b 45 08             	mov    eax,DWORD PTR [ebp+0x8]
    2dbb:	83 ec 04             	sub    esp,0x4
    2dbe:	ff 75 fc             	push   DWORD PTR [ebp-0x4]
    2dc1:	ff 75 f8             	push   DWORD PTR [ebp-0x8]
    2dc4:	50                   	push   eax
    2dc5:	e8 4a ff ff ff       	call   0x2d14
    2dca:	83 c4 10             	add    esp,0x10
    2dcd:	eb 01                	jmp    0x2dd0
    2dcf:	90                   	nop
    2dd0:	c9                   	leave
    2dd1:	c3                   	ret
    2dd2:	55                   	push   ebp
    2dd3:	89 e5                	mov    ebp,esp
    2dd5:	8b 45 08             	mov    eax,DWORD PTR [ebp+0x8]
    2dd8:	83 ec 04             	sub    esp,0x4
    2ddb:	50                   	push   eax
    2ddc:	e8 8b ff ff ff       	call   0x2d6c
    2de1:	83 c4 08             	add    esp,0x8
    2de4:	c9                   	leave
    2de5:	c3                   	ret
    2de6:	55                   	push   ebp
    2de7:	89 e5                	mov    ebp,esp
    2de9:	83 ec 18             	sub    esp,0x18
    2dec:	8b 45 0c             	mov    eax,DWORD PTR [ebp+0xc]
    2def:	89 45 e8             	mov    DWORD PTR [ebp-0x18],eax
    2df2:	8b 45 10             	mov    eax,DWORD PTR [ebp+0x10]
    2df5:	89 45 ec             	mov    DWORD PTR [ebp-0x14],eax
    2df8:	8b 45 08             	mov    eax,DWORD PTR [ebp+0x8]
    2dfb:	85 c0                	test   eax,eax
    2dfd:	74 45                	je     0x2e44
    2dff:	8b 45 08             	mov    eax,DWORD PTR [ebp+0x8]
    2e02:	8b 50 04             	mov    edx,DWORD PTR [eax+0x4]
    2e05:	8b 00                	mov    eax,DWORD PTR [eax]
    2e07:	25 00 f0 ff ff       	and    eax,0xfffff000
    2e0c:	81 e2 ff ff 0f 00    	and    edx,0xfffff
    2e12:	89 45 f8             	mov    DWORD PTR [ebp-0x8],eax
    2e15:	89 55 fc             	mov    DWORD PTR [ebp-0x4],edx
    2e18:	8b 45 e8             	mov    eax,DWORD PTR [ebp-0x18]
    2e1b:	8b 55 ec             	mov    edx,DWORD PTR [ebp-0x14]
    2e1e:	25 ff 0f 00 00       	and    eax,0xfff
    2e23:	ba 00 00 00 00       	mov    edx,0x0
    2e28:	89 45 f0             	mov    DWORD PTR [ebp-0x10],eax
    2e2b:	89 55 f4             	mov    DWORD PTR [ebp-0xc],edx
    2e2e:	8b 4d 08             	mov    ecx,DWORD PTR [ebp+0x8]
    2e31:	8b 45 f8             	mov    eax,DWORD PTR [ebp-0x8]
    2e34:	8b 55 fc             	mov    edx,DWORD PTR [ebp-0x4]
    2e37:	0b 45 f0             	or     eax,DWORD PTR [ebp-0x10]
    2e3a:	0b 55 f4             	or     edx,DWORD PTR [ebp-0xc]
    2e3d:	89 01                	mov    DWORD PTR [ecx],eax
    2e3f:	89 51 04             	mov    DWORD PTR [ecx+0x4],edx
    2e42:	eb 01                	jmp    0x2e45
    2e44:	90                   	nop
    2e45:	c9                   	leave
    2e46:	c3                   	ret
    2e47:	55                   	push   ebp
    2e48:	89 e5                	mov    ebp,esp
    2e4a:	83 ec 08             	sub    esp,0x8
    2e4d:	8b 45 0c             	mov    eax,DWORD PTR [ebp+0xc]
    2e50:	89 45 f8             	mov    DWORD PTR [ebp-0x8],eax
    2e53:	8b 45 10             	mov    eax,DWORD PTR [ebp+0x10]
    2e56:	89 45 fc             	mov    DWORD PTR [ebp-0x4],eax
    2e59:	8b 45 08             	mov    eax,DWORD PTR [ebp+0x8]
    2e5c:	85 c0                	test   eax,eax
    2e5e:	74 17                	je     0x2e77
    2e60:	8b 45 08             	mov    eax,DWORD PTR [ebp+0x8]
    2e63:	83 ec 04             	sub    esp,0x4
    2e66:	ff 75 fc             	push   DWORD PTR [ebp-0x4]
    2e69:	ff 75 f8             	push   DWORD PTR [ebp-0x8]
    2e6c:	50                   	push   eax
    2e6d:	e8 a2 fe ff ff       	call   0x2d14
    2e72:	83 c4 10             	add    esp,0x10
    2e75:	eb 01                	jmp    0x2e78
    2e77:	90                   	nop
    2e78:	c9                   	leave
    2e79:	c3                   	ret
    2e7a:	55                   	push   ebp
    2e7b:	89 e5                	mov    ebp,esp
    2e7d:	8b 45 08             	mov    eax,DWORD PTR [ebp+0x8]
    2e80:	83 ec 04             	sub    esp,0x4
    2e83:	50                   	push   eax
    2e84:	e8 e3 fe ff ff       	call   0x2d6c
    2e89:	83 c4 08             	add    esp,0x8
    2e8c:	c9                   	leave
    2e8d:	c3                   	ret
    2e8e:	55                   	push   ebp
    2e8f:	89 e5                	mov    ebp,esp
    2e91:	83 ec 18             	sub    esp,0x18
    2e94:	8b 45 0c             	mov    eax,DWORD PTR [ebp+0xc]
    2e97:	89 45 e8             	mov    DWORD PTR [ebp-0x18],eax
    2e9a:	8b 45 10             	mov    eax,DWORD PTR [ebp+0x10]
    2e9d:	89 45 ec             	mov    DWORD PTR [ebp-0x14],eax
    2ea0:	8b 45 08             	mov    eax,DWORD PTR [ebp+0x8]
    2ea3:	85 c0                	test   eax,eax
    2ea5:	74 45                	je     0x2eec
    2ea7:	8b 45 08             	mov    eax,DWORD PTR [ebp+0x8]
    2eaa:	8b 50 04             	mov    edx,DWORD PTR [eax+0x4]
    2ead:	8b 00                	mov    eax,DWORD PTR [eax]
    2eaf:	25 00 f0 ff ff       	and    eax,0xfffff000
    2eb4:	81 e2 ff ff 0f 00    	and    edx,0xfffff
    2eba:	89 45 f8             	mov    DWORD PTR [ebp-0x8],eax
    2ebd:	89 55 fc             	mov    DWORD PTR [ebp-0x4],edx
    2ec0:	8b 45 e8             	mov    eax,DWORD PTR [ebp-0x18]
    2ec3:	8b 55 ec             	mov    edx,DWORD PTR [ebp-0x14]
    2ec6:	25 ff 0f 00 00       	and    eax,0xfff
    2ecb:	ba 00 00 00 00       	mov    edx,0x0
    2ed0:	89 45 f0             	mov    DWORD PTR [ebp-0x10],eax
    2ed3:	89 55 f4             	mov    DWORD PTR [ebp-0xc],edx
    2ed6:	8b 4d 08             	mov    ecx,DWORD PTR [ebp+0x8]
    2ed9:	8b 45 f8             	mov    eax,DWORD PTR [ebp-0x8]
    2edc:	8b 55 fc             	mov    edx,DWORD PTR [ebp-0x4]
    2edf:	0b 45 f0             	or     eax,DWORD PTR [ebp-0x10]
    2ee2:	0b 55 f4             	or     edx,DWORD PTR [ebp-0xc]
    2ee5:	89 01                	mov    DWORD PTR [ecx],eax
    2ee7:	89 51 04             	mov    DWORD PTR [ecx+0x4],edx
    2eea:	eb 01                	jmp    0x2eed
    2eec:	90                   	nop
    2eed:	c9                   	leave
    2eee:	c3                   	ret
    2eef:	55                   	push   ebp
    2ef0:	89 e5                	mov    ebp,esp
    2ef2:	83 ec 08             	sub    esp,0x8
    2ef5:	8b 45 08             	mov    eax,DWORD PTR [ebp+0x8]
    2ef8:	83 ec 0c             	sub    esp,0xc
    2efb:	50                   	push   eax
    2efc:	e8 06 00 00 00       	call   0x2f07
    2f01:	83 c4 10             	add    esp,0x10
    2f04:	90                   	nop
    2f05:	c9                   	leave
    2f06:	c3                   	ret
    2f07:	55                   	push   ebp
    2f08:	89 e5                	mov    ebp,esp
    2f0a:	eb 02                	jmp    0x2f0e
    2f0c:	f3 90                	pause
    2f0e:	8b 55 08             	mov    edx,DWORD PTR [ebp+0x8]
    2f11:	b8 01 00 00 00       	mov    eax,0x1
    2f16:	86 02                	xchg   BYTE PTR [edx],al
    2f18:	84 c0                	test   al,al
    2f1a:	75 f0                	jne    0x2f0c
    2f1c:	90                   	nop
    2f1d:	90                   	nop
    2f1e:	5d                   	pop    ebp
    2f1f:	c3                   	ret
    2f20:	55                   	push   ebp
    2f21:	89 e5                	mov    ebp,esp
    2f23:	83 ec 08             	sub    esp,0x8
    2f26:	8b 45 08             	mov    eax,DWORD PTR [ebp+0x8]
    2f29:	83 ec 0c             	sub    esp,0xc
    2f2c:	50                   	push   eax
    2f2d:	e8 06 00 00 00       	call   0x2f38
    2f32:	83 c4 10             	add    esp,0x10
    2f35:	90                   	nop
    2f36:	c9                   	leave
    2f37:	c3                   	ret
    2f38:	55                   	push   ebp
    2f39:	89 e5                	mov    ebp,esp
    2f3b:	8b 45 08             	mov    eax,DWORD PTR [ebp+0x8]
    2f3e:	ba 00 00 00 00       	mov    edx,0x0
    2f43:	88 10                	mov    BYTE PTR [eax],dl
    2f45:	90                   	nop
    2f46:	5d                   	pop    ebp
    2f47:	c3                   	ret
    2f48:	55                   	push   ebp
    2f49:	89 e5                	mov    ebp,esp
    2f4b:	83 ec 18             	sub    esp,0x18
    2f4e:	8b 45 08             	mov    eax,DWORD PTR [ebp+0x8]
    2f51:	88 45 f4             	mov    BYTE PTR [ebp-0xc],al
    2f54:	0f b6 45 f4          	movzx  eax,BYTE PTR [ebp-0xc]
    2f58:	0f b6 c0             	movzx  eax,al
    2f5b:	83 ec 08             	sub    esp,0x8
    2f5e:	50                   	push   eax
    2f5f:	68 e9 00 00 00       	push   0xe9
    2f64:	e8 34 0c 00 00       	call   0x3b9d
    2f69:	83 c4 10             	add    esp,0x10
    2f6c:	90                   	nop
    2f6d:	c9                   	leave
    2f6e:	c3                   	ret
    2f6f:	55                   	push   ebp
    2f70:	89 e5                	mov    ebp,esp
    2f72:	83 ec 18             	sub    esp,0x18
    2f75:	c7 45 f4 00 00 00 00 	mov    DWORD PTR [ebp-0xc],0x0
    2f7c:	eb 1e                	jmp    0x2f9c
    2f7e:	8b 55 08             	mov    edx,DWORD PTR [ebp+0x8]
    2f81:	8b 45 f4             	mov    eax,DWORD PTR [ebp-0xc]
    2f84:	01 d0                	add    eax,edx
    2f86:	0f b6 00             	movzx  eax,BYTE PTR [eax]
    2f89:	0f be c0             	movsx  eax,al
    2f8c:	83 ec 0c             	sub    esp,0xc
    2f8f:	50                   	push   eax
    2f90:	e8 b3 ff ff ff       	call   0x2f48
    2f95:	83 c4 10             	add    esp,0x10
    2f98:	83 45 f4 01          	add    DWORD PTR [ebp-0xc],0x1
    2f9c:	8b 55 08             	mov    edx,DWORD PTR [ebp+0x8]
    2f9f:	8b 45 f4             	mov    eax,DWORD PTR [ebp-0xc]
    2fa2:	01 d0                	add    eax,edx
    2fa4:	0f b6 00             	movzx  eax,BYTE PTR [eax]
    2fa7:	84 c0                	test   al,al
    2fa9:	75 d3                	jne    0x2f7e
    2fab:	90                   	nop
    2fac:	90                   	nop
    2fad:	c9                   	leave
    2fae:	c3                   	ret
    2faf:	55                   	push   ebp
    2fb0:	89 e5                	mov    ebp,esp
    2fb2:	83 ec 08             	sub    esp,0x8
    2fb5:	a1 98 d0 00 00       	mov    eax,ds:0xd098
    2fba:	83 ec 0c             	sub    esp,0xc
    2fbd:	50                   	push   eax
    2fbe:	e8 ac ff ff ff       	call   0x2f6f
    2fc3:	83 c4 10             	add    esp,0x10
    2fc6:	90                   	nop
    2fc7:	c9                   	leave
    2fc8:	c3                   	ret
    2fc9:	55                   	push   ebp
    2fca:	89 e5                	mov    ebp,esp
    2fcc:	83 ec 08             	sub    esp,0x8
    2fcf:	83 ec 0c             	sub    esp,0xc
    2fd2:	ff 75 08             	push   DWORD PTR [ebp+0x8]
    2fd5:	e8 95 ff ff ff       	call   0x2f6f
    2fda:	83 c4 10             	add    esp,0x10
    2fdd:	e8 cd ff ff ff       	call   0x2faf
    2fe2:	90                   	nop
    2fe3:	c9                   	leave
    2fe4:	c3                   	ret
    2fe5:	55                   	push   ebp
    2fe6:	89 e5                	mov    ebp,esp
    2fe8:	83 ec 28             	sub    esp,0x28
    2feb:	8b 45 08             	mov    eax,DWORD PTR [ebp+0x8]
    2fee:	88 45 e4             	mov    BYTE PTR [ebp-0x1c],al
    2ff1:	0f be 45 e4          	movsx  eax,BYTE PTR [ebp-0x1c]
    2ff5:	83 ec 0c             	sub    esp,0xc
    2ff8:	50                   	push   eax
    2ff9:	e8 43 05 00 00       	call   0x3541
    2ffe:	83 c4 10             	add    esp,0x10
    3001:	89 45 f4             	mov    DWORD PTR [ebp-0xc],eax
    3004:	83 ec 0c             	sub    esp,0xc
    3007:	ff 75 f4             	push   DWORD PTR [ebp-0xc]
    300a:	e8 60 ff ff ff       	call   0x2f6f
    300f:	83 c4 10             	add    esp,0x10
    3012:	83 ec 0c             	sub    esp,0xc
    3015:	ff 75 f4             	push   DWORD PTR [ebp-0xc]
    3018:	e8 62 f7 ff ff       	call   0x277f
    301d:	83 c4 10             	add    esp,0x10
    3020:	90                   	nop
    3021:	c9                   	leave
    3022:	c3                   	ret
    3023:	55                   	push   ebp
    3024:	89 e5                	mov    ebp,esp
    3026:	83 ec 28             	sub    esp,0x28
    3029:	8b 45 08             	mov    eax,DWORD PTR [ebp+0x8]
    302c:	66 89 45 e4          	mov    WORD PTR [ebp-0x1c],ax
    3030:	0f bf 45 e4          	movsx  eax,WORD PTR [ebp-0x1c]
    3034:	83 ec 0c             	sub    esp,0xc
    3037:	50                   	push   eax
    3038:	e8 22 05 00 00       	call   0x355f
    303d:	83 c4 10             	add    esp,0x10
    3040:	89 45 f4             	mov    DWORD PTR [ebp-0xc],eax
    3043:	83 ec 0c             	sub    esp,0xc
    3046:	ff 75 f4             	push   DWORD PTR [ebp-0xc]
    3049:	e8 21 ff ff ff       	call   0x2f6f
    304e:	83 c4 10             	add    esp,0x10
    3051:	83 ec 0c             	sub    esp,0xc
    3054:	ff 75 f4             	push   DWORD PTR [ebp-0xc]
    3057:	e8 23 f7 ff ff       	call   0x277f
    305c:	83 c4 10             	add    esp,0x10
    305f:	90                   	nop
    3060:	c9                   	leave
    3061:	c3                   	ret
    3062:	55                   	push   ebp
    3063:	89 e5                	mov    ebp,esp
    3065:	83 ec 18             	sub    esp,0x18
    3068:	83 ec 0c             	sub    esp,0xc
    306b:	ff 75 08             	push   DWORD PTR [ebp+0x8]
    306e:	e8 0b 05 00 00       	call   0x357e
    3073:	83 c4 10             	add    esp,0x10
    3076:	89 45 f4             	mov    DWORD PTR [ebp-0xc],eax
    3079:	83 ec 0c             	sub    esp,0xc
    307c:	ff 75 f4             	push   DWORD PTR [ebp-0xc]
    307f:	e8 eb fe ff ff       	call   0x2f6f
    3084:	83 c4 10             	add    esp,0x10
    3087:	83 ec 0c             	sub    esp,0xc
    308a:	ff 75 f4             	push   DWORD PTR [ebp-0xc]
    308d:	e8 ed f6 ff ff       	call   0x277f
    3092:	83 c4 10             	add    esp,0x10
    3095:	90                   	nop
    3096:	c9                   	leave
    3097:	c3                   	ret
    3098:	55                   	push   ebp
    3099:	89 e5                	mov    ebp,esp
    309b:	83 ec 28             	sub    esp,0x28
    309e:	8b 45 08             	mov    eax,DWORD PTR [ebp+0x8]
    30a1:	88 45 e4             	mov    BYTE PTR [ebp-0x1c],al
    30a4:	0f b6 45 e4          	movzx  eax,BYTE PTR [ebp-0x1c]
    30a8:	83 ec 0c             	sub    esp,0xc
    30ab:	50                   	push   eax
    30ac:	e8 3d 04 00 00       	call   0x34ee
    30b1:	83 c4 10             	add    esp,0x10
    30b4:	89 45 f4             	mov    DWORD PTR [ebp-0xc],eax
    30b7:	83 ec 0c             	sub    esp,0xc
    30ba:	ff 75 f4             	push   DWORD PTR [ebp-0xc]
    30bd:	e8 ad fe ff ff       	call   0x2f6f
    30c2:	83 c4 10             	add    esp,0x10
    30c5:	83 ec 0c             	sub    esp,0xc
    30c8:	ff 75 f4             	push   DWORD PTR [ebp-0xc]
    30cb:	e8 af f6 ff ff       	call   0x277f
    30d0:	83 c4 10             	add    esp,0x10
    30d3:	90                   	nop
    30d4:	c9                   	leave
    30d5:	c3                   	ret
    30d6:	55                   	push   ebp
    30d7:	89 e5                	mov    ebp,esp
    30d9:	83 ec 28             	sub    esp,0x28
    30dc:	8b 45 08             	mov    eax,DWORD PTR [ebp+0x8]
    30df:	66 89 45 e4          	mov    WORD PTR [ebp-0x1c],ax
    30e3:	0f b7 45 e4          	movzx  eax,WORD PTR [ebp-0x1c]
    30e7:	83 ec 0c             	sub    esp,0xc
    30ea:	50                   	push   eax
    30eb:	e8 1c 04 00 00       	call   0x350c
    30f0:	83 c4 10             	add    esp,0x10
    30f3:	89 45 f4             	mov    DWORD PTR [ebp-0xc],eax
    30f6:	83 ec 0c             	sub    esp,0xc
    30f9:	ff 75 f4             	push   DWORD PTR [ebp-0xc]
    30fc:	e8 6e fe ff ff       	call   0x2f6f
    3101:	83 c4 10             	add    esp,0x10
    3104:	83 ec 0c             	sub    esp,0xc
    3107:	ff 75 f4             	push   DWORD PTR [ebp-0xc]
    310a:	e8 70 f6 ff ff       	call   0x277f
    310f:	83 c4 10             	add    esp,0x10
    3112:	90                   	nop
    3113:	c9                   	leave
    3114:	c3                   	ret
    3115:	55                   	push   ebp
    3116:	89 e5                	mov    ebp,esp
    3118:	83 ec 18             	sub    esp,0x18
    311b:	83 ec 0c             	sub    esp,0xc
    311e:	ff 75 08             	push   DWORD PTR [ebp+0x8]
    3121:	e8 05 04 00 00       	call   0x352b
    3126:	83 c4 10             	add    esp,0x10
    3129:	89 45 f4             	mov    DWORD PTR [ebp-0xc],eax
    312c:	83 ec 0c             	sub    esp,0xc
    312f:	ff 75 f4             	push   DWORD PTR [ebp-0xc]
    3132:	e8 38 fe ff ff       	call   0x2f6f
    3137:	83 c4 10             	add    esp,0x10
    313a:	83 ec 0c             	sub    esp,0xc
    313d:	ff 75 f4             	push   DWORD PTR [ebp-0xc]
    3140:	e8 3a f6 ff ff       	call   0x277f
    3145:	83 c4 10             	add    esp,0x10
    3148:	90                   	nop
    3149:	c9                   	leave
    314a:	c3                   	ret
    314b:	55                   	push   ebp
    314c:	89 e5                	mov    ebp,esp
    314e:	83 ec 10             	sub    esp,0x10
    3151:	c7 45 fc 00 00 00 00 	mov    DWORD PTR [ebp-0x4],0x0
    3158:	8b 45 0c             	mov    eax,DWORD PTR [ebp+0xc]
    315b:	83 e8 01             	sub    eax,0x1
    315e:	89 45 f8             	mov    DWORD PTR [ebp-0x8],eax
    3161:	eb 39                	jmp    0x319c
    3163:	8b 55 08             	mov    edx,DWORD PTR [ebp+0x8]
    3166:	8b 45 fc             	mov    eax,DWORD PTR [ebp-0x4]
    3169:	01 d0                	add    eax,edx
    316b:	0f b6 00             	movzx  eax,BYTE PTR [eax]
    316e:	88 45 f7             	mov    BYTE PTR [ebp-0x9],al
    3171:	8b 55 08             	mov    edx,DWORD PTR [ebp+0x8]
    3174:	8b 45 f8             	mov    eax,DWORD PTR [ebp-0x8]
    3177:	01 d0                	add    eax,edx
    3179:	8b 4d 08             	mov    ecx,DWORD PTR [ebp+0x8]
    317c:	8b 55 fc             	mov    edx,DWORD PTR [ebp-0x4]
    317f:	01 ca                	add    edx,ecx
    3181:	0f b6 00             	movzx  eax,BYTE PTR [eax]
    3184:	88 02                	mov    BYTE PTR [edx],al
    3186:	8b 55 08             	mov    edx,DWORD PTR [ebp+0x8]
    3189:	8b 45 f8             	mov    eax,DWORD PTR [ebp-0x8]
    318c:	01 c2                	add    edx,eax
    318e:	0f b6 45 f7          	movzx  eax,BYTE PTR [ebp-0x9]
    3192:	88 02                	mov    BYTE PTR [edx],al
    3194:	83 45 fc 01          	add    DWORD PTR [ebp-0x4],0x1
    3198:	83 6d f8 01          	sub    DWORD PTR [ebp-0x8],0x1
    319c:	8b 45 fc             	mov    eax,DWORD PTR [ebp-0x4]
    319f:	3b 45 f8             	cmp    eax,DWORD PTR [ebp-0x8]
    31a2:	72 bf                	jb     0x3163
    31a4:	90                   	nop
    31a5:	90                   	nop
    31a6:	c9                   	leave
    31a7:	c3                   	ret
    31a8:	55                   	push   ebp
    31a9:	89 e5                	mov    ebp,esp
    31ab:	83 ec 18             	sub    esp,0x18
    31ae:	83 ec 0c             	sub    esp,0xc
    31b1:	6a 16                	push   0x16
    31b3:	e8 af f4 ff ff       	call   0x2667
    31b8:	83 c4 10             	add    esp,0x10
    31bb:	89 45 f0             	mov    DWORD PTR [ebp-0x10],eax
    31be:	83 7d f0 00          	cmp    DWORD PTR [ebp-0x10],0x0
    31c2:	75 0a                	jne    0x31ce
    31c4:	b8 00 00 00 00       	mov    eax,0x0
    31c9:	e9 8a 00 00 00       	jmp    0x3258
    31ce:	c7 45 f4 00 00 00 00 	mov    DWORD PTR [ebp-0xc],0x0
    31d5:	83 7d 08 00          	cmp    DWORD PTR [ebp+0x8],0x0
    31d9:	75 58                	jne    0x3233
    31db:	8b 45 f4             	mov    eax,DWORD PTR [ebp-0xc]
    31de:	8d 50 01             	lea    edx,[eax+0x1]
    31e1:	89 55 f4             	mov    DWORD PTR [ebp-0xc],edx
    31e4:	8b 55 f0             	mov    edx,DWORD PTR [ebp-0x10]
    31e7:	01 d0                	add    eax,edx
    31e9:	c6 00 30             	mov    BYTE PTR [eax],0x30
    31ec:	eb 4b                	jmp    0x3239
    31ee:	8b 4d 08             	mov    ecx,DWORD PTR [ebp+0x8]
    31f1:	ba cd cc cc cc       	mov    edx,0xcccccccd
    31f6:	89 c8                	mov    eax,ecx
    31f8:	f7 e2                	mul    edx
    31fa:	c1 ea 03             	shr    edx,0x3
    31fd:	89 d0                	mov    eax,edx
    31ff:	c1 e0 02             	shl    eax,0x2
    3202:	01 d0                	add    eax,edx
    3204:	01 c0                	add    eax,eax
    3206:	29 c1                	sub    ecx,eax
    3208:	89 ca                	mov    edx,ecx
    320a:	89 d0                	mov    eax,edx
    320c:	8d 48 30             	lea    ecx,[eax+0x30]
    320f:	8b 45 f4             	mov    eax,DWORD PTR [ebp-0xc]
    3212:	8d 50 01             	lea    edx,[eax+0x1]
    3215:	89 55 f4             	mov    DWORD PTR [ebp-0xc],edx
    3218:	8b 55 f0             	mov    edx,DWORD PTR [ebp-0x10]
    321b:	01 d0                	add    eax,edx
    321d:	89 ca                	mov    edx,ecx
    321f:	88 10                	mov    BYTE PTR [eax],dl
    3221:	8b 45 08             	mov    eax,DWORD PTR [ebp+0x8]
    3224:	ba cd cc cc cc       	mov    edx,0xcccccccd
    3229:	f7 e2                	mul    edx
    322b:	89 d0                	mov    eax,edx
    322d:	c1 e8 03             	shr    eax,0x3
    3230:	89 45 08             	mov    DWORD PTR [ebp+0x8],eax
    3233:	83 7d 08 00          	cmp    DWORD PTR [ebp+0x8],0x0
    3237:	75 b5                	jne    0x31ee
    3239:	8b 55 f0             	mov    edx,DWORD PTR [ebp-0x10]
    323c:	8b 45 f4             	mov    eax,DWORD PTR [ebp-0xc]
    323f:	01 d0                	add    eax,edx
    3241:	c6 00 00             	mov    BYTE PTR [eax],0x0
    3244:	83 ec 08             	sub    esp,0x8
    3247:	ff 75 f4             	push   DWORD PTR [ebp-0xc]
    324a:	ff 75 f0             	push   DWORD PTR [ebp-0x10]
    324d:	e8 f9 fe ff ff       	call   0x314b
    3252:	83 c4 10             	add    esp,0x10
    3255:	8b 45 f0             	mov    eax,DWORD PTR [ebp-0x10]
    3258:	c9                   	leave
    3259:	c3                   	ret
    325a:	55                   	push   ebp
    325b:	89 e5                	mov    ebp,esp
    325d:	83 ec 28             	sub    esp,0x28
    3260:	83 ec 0c             	sub    esp,0xc
    3263:	6a 16                	push   0x16
    3265:	e8 fd f3 ff ff       	call   0x2667
    326a:	83 c4 10             	add    esp,0x10
    326d:	89 45 e4             	mov    DWORD PTR [ebp-0x1c],eax
    3270:	83 7d e4 00          	cmp    DWORD PTR [ebp-0x1c],0x0
    3274:	75 0a                	jne    0x3280
    3276:	b8 00 00 00 00       	mov    eax,0x0
    327b:	e9 1f 01 00 00       	jmp    0x339f
    3280:	c7 45 f4 00 00 00 00 	mov    DWORD PTR [ebp-0xc],0x0
    3287:	c6 45 f3 00          	mov    BYTE PTR [ebp-0xd],0x0
    328b:	83 7d 08 00          	cmp    DWORD PTR [ebp+0x8],0x0
    328f:	75 24                	jne    0x32b5
    3291:	8b 45 f4             	mov    eax,DWORD PTR [ebp-0xc]
    3294:	8d 50 01             	lea    edx,[eax+0x1]
    3297:	89 55 f4             	mov    DWORD PTR [ebp-0xc],edx
    329a:	8b 55 e4             	mov    edx,DWORD PTR [ebp-0x1c]
    329d:	01 d0                	add    eax,edx
    329f:	c6 00 30             	mov    BYTE PTR [eax],0x30
    32a2:	8b 55 e4             	mov    edx,DWORD PTR [ebp-0x1c]
    32a5:	8b 45 f4             	mov    eax,DWORD PTR [ebp-0xc]
    32a8:	01 d0                	add    eax,edx
    32aa:	c6 00 00             	mov    BYTE PTR [eax],0x0
    32ad:	8b 45 e4             	mov    eax,DWORD PTR [ebp-0x1c]
    32b0:	e9 ea 00 00 00       	jmp    0x339f
    32b5:	83 7d 08 00          	cmp    DWORD PTR [ebp+0x8],0x0
    32b9:	79 5b                	jns    0x3316
    32bb:	c6 45 f3 01          	mov    BYTE PTR [ebp-0xd],0x1
    32bf:	8b 45 08             	mov    eax,DWORD PTR [ebp+0x8]
    32c2:	f7 d8                	neg    eax
    32c4:	89 45 ec             	mov    DWORD PTR [ebp-0x14],eax
    32c7:	eb 45                	jmp    0x330e
    32c9:	8b 4d ec             	mov    ecx,DWORD PTR [ebp-0x14]
    32cc:	ba cd cc cc cc       	mov    edx,0xcccccccd
    32d1:	89 c8                	mov    eax,ecx
    32d3:	f7 e2                	mul    edx
    32d5:	c1 ea 03             	shr    edx,0x3
    32d8:	89 d0                	mov    eax,edx
    32da:	c1 e0 02             	shl    eax,0x2
    32dd:	01 d0                	add    eax,edx
    32df:	01 c0                	add    eax,eax
    32e1:	29 c1                	sub    ecx,eax
    32e3:	89 ca                	mov    edx,ecx
    32e5:	89 d0                	mov    eax,edx
    32e7:	8d 48 30             	lea    ecx,[eax+0x30]
    32ea:	8b 45 f4             	mov    eax,DWORD PTR [ebp-0xc]
    32ed:	8d 50 01             	lea    edx,[eax+0x1]
    32f0:	89 55 f4             	mov    DWORD PTR [ebp-0xc],edx
    32f3:	8b 55 e4             	mov    edx,DWORD PTR [ebp-0x1c]
    32f6:	01 d0                	add    eax,edx
    32f8:	89 ca                	mov    edx,ecx
    32fa:	88 10                	mov    BYTE PTR [eax],dl
    32fc:	8b 45 ec             	mov    eax,DWORD PTR [ebp-0x14]
    32ff:	ba cd cc cc cc       	mov    edx,0xcccccccd
    3304:	f7 e2                	mul    edx
    3306:	89 d0                	mov    eax,edx
    3308:	c1 e8 03             	shr    eax,0x3
    330b:	89 45 ec             	mov    DWORD PTR [ebp-0x14],eax
    330e:	83 7d ec 00          	cmp    DWORD PTR [ebp-0x14],0x0
    3312:	75 b5                	jne    0x32c9
    3314:	eb 53                	jmp    0x3369
    3316:	8b 45 08             	mov    eax,DWORD PTR [ebp+0x8]
    3319:	89 45 e8             	mov    DWORD PTR [ebp-0x18],eax
    331c:	eb 45                	jmp    0x3363
    331e:	8b 4d e8             	mov    ecx,DWORD PTR [ebp-0x18]
    3321:	ba cd cc cc cc       	mov    edx,0xcccccccd
    3326:	89 c8                	mov    eax,ecx
    3328:	f7 e2                	mul    edx
    332a:	c1 ea 03             	shr    edx,0x3
    332d:	89 d0                	mov    eax,edx
    332f:	c1 e0 02             	shl    eax,0x2
    3332:	01 d0                	add    eax,edx
    3334:	01 c0                	add    eax,eax
    3336:	29 c1                	sub    ecx,eax
    3338:	89 ca                	mov    edx,ecx
    333a:	89 d0                	mov    eax,edx
    333c:	8d 48 30             	lea    ecx,[eax+0x30]
    333f:	8b 45 f4             	mov    eax,DWORD PTR [ebp-0xc]
    3342:	8d 50 01             	lea    edx,[eax+0x1]
    3345:	89 55 f4             	mov    DWORD PTR [ebp-0xc],edx
    3348:	8b 55 e4             	mov    edx,DWORD PTR [ebp-0x1c]
    334b:	01 d0                	add    eax,edx
    334d:	89 ca                	mov    edx,ecx
    334f:	88 10                	mov    BYTE PTR [eax],dl
    3351:	8b 45 e8             	mov    eax,DWORD PTR [ebp-0x18]
    3354:	ba cd cc cc cc       	mov    edx,0xcccccccd
    3359:	f7 e2                	mul    edx
    335b:	89 d0                	mov    eax,edx
    335d:	c1 e8 03             	shr    eax,0x3
    3360:	89 45 e8             	mov    DWORD PTR [ebp-0x18],eax
    3363:	83 7d e8 00          	cmp    DWORD PTR [ebp-0x18],0x0
    3367:	75 b5                	jne    0x331e
    3369:	80 7d f3 00          	cmp    BYTE PTR [ebp-0xd],0x0
    336d:	74 11                	je     0x3380
    336f:	8b 45 f4             	mov    eax,DWORD PTR [ebp-0xc]
    3372:	8d 50 01             	lea    edx,[eax+0x1]
    3375:	89 55 f4             	mov    DWORD PTR [ebp-0xc],edx
    3378:	8b 55 e4             	mov    edx,DWORD PTR [ebp-0x1c]
    337b:	01 d0                	add    eax,edx
    337d:	c6 00 2d             	mov    BYTE PTR [eax],0x2d
    3380:	8b 55 e4             	mov    edx,DWORD PTR [ebp-0x1c]
    3383:	8b 45 f4             	mov    eax,DWORD PTR [ebp-0xc]
    3386:	01 d0                	add    eax,edx
    3388:	c6 00 00             	mov    BYTE PTR [eax],0x0
    338b:	83 ec 08             	sub    esp,0x8
    338e:	ff 75 f4             	push   DWORD PTR [ebp-0xc]
    3391:	ff 75 e4             	push   DWORD PTR [ebp-0x1c]
    3394:	e8 b2 fd ff ff       	call   0x314b
    3399:	83 c4 10             	add    esp,0x10
    339c:	8b 45 e4             	mov    eax,DWORD PTR [ebp-0x1c]
    339f:	c9                   	leave
    33a0:	c3                   	ret
    33a1:	55                   	push   ebp
    33a2:	89 e5                	mov    ebp,esp
    33a4:	83 ec 10             	sub    esp,0x10
    33a7:	83 7d 08 00          	cmp    DWORD PTR [ebp+0x8],0x0
    33ab:	74 0a                	je     0x33b7
    33ad:	8b 45 08             	mov    eax,DWORD PTR [ebp+0x8]
    33b0:	0f b6 00             	movzx  eax,BYTE PTR [eax]
    33b3:	84 c0                	test   al,al
    33b5:	75 07                	jne    0x33be
    33b7:	b8 00 00 00 00       	mov    eax,0x0
    33bc:	eb 54                	jmp    0x3412
    33be:	c7 45 fc 00 00 00 00 	mov    DWORD PTR [ebp-0x4],0x0
    33c5:	eb 3e                	jmp    0x3405
    33c7:	8b 45 08             	mov    eax,DWORD PTR [ebp+0x8]
    33ca:	0f b6 00             	movzx  eax,BYTE PTR [eax]
    33cd:	3c 2f                	cmp    al,0x2f
    33cf:	7e 0a                	jle    0x33db
    33d1:	8b 45 08             	mov    eax,DWORD PTR [ebp+0x8]
    33d4:	0f b6 00             	movzx  eax,BYTE PTR [eax]
    33d7:	3c 39                	cmp    al,0x39
    33d9:	7e 07                	jle    0x33e2
    33db:	b8 00 00 00 00       	mov    eax,0x0
    33e0:	eb 30                	jmp    0x3412
    33e2:	8b 55 fc             	mov    edx,DWORD PTR [ebp-0x4]
    33e5:	89 d0                	mov    eax,edx
    33e7:	c1 e0 02             	shl    eax,0x2
    33ea:	01 d0                	add    eax,edx
    33ec:	01 c0                	add    eax,eax
    33ee:	89 c2                	mov    edx,eax
    33f0:	8b 45 08             	mov    eax,DWORD PTR [ebp+0x8]
    33f3:	0f b6 00             	movzx  eax,BYTE PTR [eax]
    33f6:	0f be c0             	movsx  eax,al
    33f9:	01 d0                	add    eax,edx
    33fb:	83 e8 30             	sub    eax,0x30
    33fe:	89 45 fc             	mov    DWORD PTR [ebp-0x4],eax
    3401:	83 45 08 01          	add    DWORD PTR [ebp+0x8],0x1
    3405:	8b 45 08             	mov    eax,DWORD PTR [ebp+0x8]
    3408:	0f b6 00             	movzx  eax,BYTE PTR [eax]
    340b:	84 c0                	test   al,al
    340d:	75 b8                	jne    0x33c7
    340f:	8b 45 fc             	mov    eax,DWORD PTR [ebp-0x4]
    3412:	c9                   	leave
    3413:	c3                   	ret
    3414:	55                   	push   ebp
    3415:	89 e5                	mov    ebp,esp
    3417:	83 ec 10             	sub    esp,0x10
    341a:	83 7d 08 00          	cmp    DWORD PTR [ebp+0x8],0x0
    341e:	74 0a                	je     0x342a
    3420:	8b 45 08             	mov    eax,DWORD PTR [ebp+0x8]
    3423:	0f b6 00             	movzx  eax,BYTE PTR [eax]
    3426:	84 c0                	test   al,al
    3428:	75 0a                	jne    0x3434
    342a:	b8 00 00 00 00       	mov    eax,0x0
    342f:	e9 b8 00 00 00       	jmp    0x34ec
    3434:	c7 45 fc 00 00 00 00 	mov    DWORD PTR [ebp-0x4],0x0
    343b:	c6 45 fb 00          	mov    BYTE PTR [ebp-0x5],0x0
    343f:	8b 45 08             	mov    eax,DWORD PTR [ebp+0x8]
    3442:	0f b6 00             	movzx  eax,BYTE PTR [eax]
    3445:	3c 2d                	cmp    al,0x2d
    3447:	75 0a                	jne    0x3453
    3449:	c6 45 fb 01          	mov    BYTE PTR [ebp-0x5],0x1
    344d:	83 45 fc 01          	add    DWORD PTR [ebp-0x4],0x1
    3451:	eb 0e                	jmp    0x3461
    3453:	8b 45 08             	mov    eax,DWORD PTR [ebp+0x8]
    3456:	0f b6 00             	movzx  eax,BYTE PTR [eax]
    3459:	3c 2b                	cmp    al,0x2b
    345b:	75 04                	jne    0x3461
    345d:	83 45 fc 01          	add    DWORD PTR [ebp-0x4],0x1
    3461:	8b 55 08             	mov    edx,DWORD PTR [ebp+0x8]
    3464:	8b 45 fc             	mov    eax,DWORD PTR [ebp-0x4]
    3467:	01 d0                	add    eax,edx
    3469:	0f b6 00             	movzx  eax,BYTE PTR [eax]
    346c:	84 c0                	test   al,al
    346e:	75 07                	jne    0x3477
    3470:	b8 00 00 00 00       	mov    eax,0x0
    3475:	eb 75                	jmp    0x34ec
    3477:	c7 45 f4 00 00 00 00 	mov    DWORD PTR [ebp-0xc],0x0
    347e:	eb 4d                	jmp    0x34cd
    3480:	8b 55 08             	mov    edx,DWORD PTR [ebp+0x8]
    3483:	8b 45 fc             	mov    eax,DWORD PTR [ebp-0x4]
    3486:	01 d0                	add    eax,edx
    3488:	0f b6 00             	movzx  eax,BYTE PTR [eax]
    348b:	3c 2f                	cmp    al,0x2f
    348d:	7e 0f                	jle    0x349e
    348f:	8b 55 08             	mov    edx,DWORD PTR [ebp+0x8]
    3492:	8b 45 fc             	mov    eax,DWORD PTR [ebp-0x4]
    3495:	01 d0                	add    eax,edx
    3497:	0f b6 00             	movzx  eax,BYTE PTR [eax]
    349a:	3c 39                	cmp    al,0x39
    349c:	7e 07                	jle    0x34a5
    349e:	b8 00 00 00 00       	mov    eax,0x0
    34a3:	eb 47                	jmp    0x34ec
    34a5:	8b 55 f4             	mov    edx,DWORD PTR [ebp-0xc]
    34a8:	89 d0                	mov    eax,edx
    34aa:	c1 e0 02             	shl    eax,0x2
    34ad:	01 d0                	add    eax,edx
    34af:	01 c0                	add    eax,eax
    34b1:	89 c1                	mov    ecx,eax
    34b3:	8b 55 08             	mov    edx,DWORD PTR [ebp+0x8]
    34b6:	8b 45 fc             	mov    eax,DWORD PTR [ebp-0x4]
    34b9:	01 d0                	add    eax,edx
    34bb:	0f b6 00             	movzx  eax,BYTE PTR [eax]
    34be:	0f be c0             	movsx  eax,al
    34c1:	01 c8                	add    eax,ecx
    34c3:	83 e8 30             	sub    eax,0x30
    34c6:	89 45 f4             	mov    DWORD PTR [ebp-0xc],eax
    34c9:	83 45 fc 01          	add    DWORD PTR [ebp-0x4],0x1
    34cd:	8b 55 08             	mov    edx,DWORD PTR [ebp+0x8]
    34d0:	8b 45 fc             	mov    eax,DWORD PTR [ebp-0x4]
    34d3:	01 d0                	add    eax,edx
    34d5:	0f b6 00             	movzx  eax,BYTE PTR [eax]
    34d8:	84 c0                	test   al,al
    34da:	75 a4                	jne    0x3480
    34dc:	80 7d fb 00          	cmp    BYTE PTR [ebp-0x5],0x0
    34e0:	74 07                	je     0x34e9
    34e2:	8b 45 f4             	mov    eax,DWORD PTR [ebp-0xc]
    34e5:	f7 d8                	neg    eax
    34e7:	eb 03                	jmp    0x34ec
    34e9:	8b 45 f4             	mov    eax,DWORD PTR [ebp-0xc]
    34ec:	c9                   	leave
    34ed:	c3                   	ret
    34ee:	55                   	push   ebp
    34ef:	89 e5                	mov    ebp,esp
    34f1:	83 ec 18             	sub    esp,0x18
    34f4:	8b 45 08             	mov    eax,DWORD PTR [ebp+0x8]
    34f7:	88 45 f4             	mov    BYTE PTR [ebp-0xc],al
    34fa:	0f b6 45 f4          	movzx  eax,BYTE PTR [ebp-0xc]
    34fe:	83 ec 0c             	sub    esp,0xc
    3501:	50                   	push   eax
    3502:	e8 a1 fc ff ff       	call   0x31a8
    3507:	83 c4 10             	add    esp,0x10
    350a:	c9                   	leave
    350b:	c3                   	ret
    350c:	55                   	push   ebp
    350d:	89 e5                	mov    ebp,esp
    350f:	83 ec 18             	sub    esp,0x18
    3512:	8b 45 08             	mov    eax,DWORD PTR [ebp+0x8]
    3515:	66 89 45 f4          	mov    WORD PTR [ebp-0xc],ax
    3519:	0f b7 45 f4          	movzx  eax,WORD PTR [ebp-0xc]
    351d:	83 ec 0c             	sub    esp,0xc
    3520:	50                   	push   eax
    3521:	e8 82 fc ff ff       	call   0x31a8
    3526:	83 c4 10             	add    esp,0x10
    3529:	c9                   	leave
    352a:	c3                   	ret
    352b:	55                   	push   ebp
    352c:	89 e5                	mov    ebp,esp
    352e:	83 ec 08             	sub    esp,0x8
    3531:	83 ec 0c             	sub    esp,0xc
    3534:	ff 75 08             	push   DWORD PTR [ebp+0x8]
    3537:	e8 6c fc ff ff       	call   0x31a8
    353c:	83 c4 10             	add    esp,0x10
    353f:	c9                   	leave
    3540:	c3                   	ret
    3541:	55                   	push   ebp
    3542:	89 e5                	mov    ebp,esp
    3544:	83 ec 18             	sub    esp,0x18
    3547:	8b 45 08             	mov    eax,DWORD PTR [ebp+0x8]
    354a:	88 45 f4             	mov    BYTE PTR [ebp-0xc],al
    354d:	0f be 45 f4          	movsx  eax,BYTE PTR [ebp-0xc]
    3551:	83 ec 0c             	sub    esp,0xc
    3554:	50                   	push   eax
    3555:	e8 00 fd ff ff       	call   0x325a
    355a:	83 c4 10             	add    esp,0x10
    355d:	c9                   	leave
    355e:	c3                   	ret
    355f:	55                   	push   ebp
    3560:	89 e5                	mov    ebp,esp
    3562:	83 ec 18             	sub    esp,0x18
    3565:	8b 45 08             	mov    eax,DWORD PTR [ebp+0x8]
    3568:	66 89 45 f4          	mov    WORD PTR [ebp-0xc],ax
    356c:	0f bf 45 f4          	movsx  eax,WORD PTR [ebp-0xc]
    3570:	83 ec 0c             	sub    esp,0xc
    3573:	50                   	push   eax
    3574:	e8 e1 fc ff ff       	call   0x325a
    3579:	83 c4 10             	add    esp,0x10
    357c:	c9                   	leave
    357d:	c3                   	ret
    357e:	55                   	push   ebp
    357f:	89 e5                	mov    ebp,esp
    3581:	83 ec 08             	sub    esp,0x8
    3584:	83 ec 0c             	sub    esp,0xc
    3587:	ff 75 08             	push   DWORD PTR [ebp+0x8]
    358a:	e8 cb fc ff ff       	call   0x325a
    358f:	83 c4 10             	add    esp,0x10
    3592:	c9                   	leave
    3593:	c3                   	ret
    3594:	55                   	push   ebp
    3595:	89 e5                	mov    ebp,esp
    3597:	ff 75 08             	push   DWORD PTR [ebp+0x8]
    359a:	e8 02 fe ff ff       	call   0x33a1
    359f:	83 c4 04             	add    esp,0x4
    35a2:	c9                   	leave
    35a3:	c3                   	ret
    35a4:	55                   	push   ebp
    35a5:	89 e5                	mov    ebp,esp
    35a7:	ff 75 08             	push   DWORD PTR [ebp+0x8]
    35aa:	e8 f2 fd ff ff       	call   0x33a1
    35af:	83 c4 04             	add    esp,0x4
    35b2:	c9                   	leave
    35b3:	c3                   	ret
    35b4:	55                   	push   ebp
    35b5:	89 e5                	mov    ebp,esp
    35b7:	ff 75 08             	push   DWORD PTR [ebp+0x8]
    35ba:	e8 e2 fd ff ff       	call   0x33a1
    35bf:	83 c4 04             	add    esp,0x4
    35c2:	c9                   	leave
    35c3:	c3                   	ret
    35c4:	55                   	push   ebp
    35c5:	89 e5                	mov    ebp,esp
    35c7:	ff 75 08             	push   DWORD PTR [ebp+0x8]
    35ca:	e8 45 fe ff ff       	call   0x3414
    35cf:	83 c4 04             	add    esp,0x4
    35d2:	c9                   	leave
    35d3:	c3                   	ret
    35d4:	55                   	push   ebp
    35d5:	89 e5                	mov    ebp,esp
    35d7:	ff 75 08             	push   DWORD PTR [ebp+0x8]
    35da:	e8 35 fe ff ff       	call   0x3414
    35df:	83 c4 04             	add    esp,0x4
    35e2:	c9                   	leave
    35e3:	c3                   	ret
    35e4:	55                   	push   ebp
    35e5:	89 e5                	mov    ebp,esp
    35e7:	ff 75 08             	push   DWORD PTR [ebp+0x8]
    35ea:	e8 25 fe ff ff       	call   0x3414
    35ef:	83 c4 04             	add    esp,0x4
    35f2:	c9                   	leave
    35f3:	c3                   	ret
    35f4:	55                   	push   ebp
    35f5:	89 e5                	mov    ebp,esp
    35f7:	83 ec 10             	sub    esp,0x10
    35fa:	c7 45 fc 00 00 00 00 	mov    DWORD PTR [ebp-0x4],0x0
    3601:	eb 04                	jmp    0x3607
    3603:	83 45 fc 01          	add    DWORD PTR [ebp-0x4],0x1
    3607:	8b 55 08             	mov    edx,DWORD PTR [ebp+0x8]
    360a:	8b 45 fc             	mov    eax,DWORD PTR [ebp-0x4]
    360d:	01 d0                	add    eax,edx
    360f:	0f b6 00             	movzx  eax,BYTE PTR [eax]
    3612:	84 c0                	test   al,al
    3614:	75 ed                	jne    0x3603
    3616:	8b 45 fc             	mov    eax,DWORD PTR [ebp-0x4]
    3619:	c9                   	leave
    361a:	c3                   	ret
    361b:	55                   	push   ebp
    361c:	89 e5                	mov    ebp,esp
    361e:	83 7d 08 00          	cmp    DWORD PTR [ebp+0x8],0x0
    3622:	75 07                	jne    0x362b
    3624:	b8 00 00 00 00       	mov    eax,0x0
    3629:	eb 0b                	jmp    0x3636
    362b:	ff 75 08             	push   DWORD PTR [ebp+0x8]
    362e:	e8 c1 ff ff ff       	call   0x35f4
    3633:	83 c4 04             	add    esp,0x4
    3636:	c9                   	leave
    3637:	c3                   	ret
    3638:	55                   	push   ebp
    3639:	89 e5                	mov    ebp,esp
    363b:	83 ec 18             	sub    esp,0x18
    363e:	83 7d 08 00          	cmp    DWORD PTR [ebp+0x8],0x0
    3642:	75 07                	jne    0x364b
    3644:	b8 00 00 00 00       	mov    eax,0x0
    3649:	eb 4b                	jmp    0x3696
    364b:	ff 75 08             	push   DWORD PTR [ebp+0x8]
    364e:	e8 a1 ff ff ff       	call   0x35f4
    3653:	83 c4 04             	add    esp,0x4
    3656:	89 45 f4             	mov    DWORD PTR [ebp-0xc],eax
    3659:	8b 45 f4             	mov    eax,DWORD PTR [ebp-0xc]
    365c:	83 c0 01             	add    eax,0x1
    365f:	83 ec 0c             	sub    esp,0xc
    3662:	50                   	push   eax
    3663:	e8 ff ef ff ff       	call   0x2667
    3668:	83 c4 10             	add    esp,0x10
    366b:	89 45 f0             	mov    DWORD PTR [ebp-0x10],eax
    366e:	83 7d f0 00          	cmp    DWORD PTR [ebp-0x10],0x0
    3672:	75 07                	jne    0x367b
    3674:	b8 00 00 00 00       	mov    eax,0x0
    3679:	eb 1b                	jmp    0x3696
    367b:	8b 45 f4             	mov    eax,DWORD PTR [ebp-0xc]
    367e:	83 c0 01             	add    eax,0x1
    3681:	83 ec 04             	sub    esp,0x4
    3684:	50                   	push   eax
    3685:	ff 75 f0             	push   DWORD PTR [ebp-0x10]
    3688:	ff 75 08             	push   DWORD PTR [ebp+0x8]
    368b:	e8 cc 03 00 00       	call   0x3a5c
    3690:	83 c4 10             	add    esp,0x10
    3693:	8b 45 f0             	mov    eax,DWORD PTR [ebp-0x10]
    3696:	c9                   	leave
    3697:	c3                   	ret
    3698:	55                   	push   ebp
    3699:	89 e5                	mov    ebp,esp
    369b:	83 ec 18             	sub    esp,0x18
    369e:	83 7d 08 00          	cmp    DWORD PTR [ebp+0x8],0x0
    36a2:	74 06                	je     0x36aa
    36a4:	83 7d 0c 00          	cmp    DWORD PTR [ebp+0xc],0x0
    36a8:	75 07                	jne    0x36b1
    36aa:	b8 00 00 00 00       	mov    eax,0x0
    36af:	eb 78                	jmp    0x3729
    36b1:	ff 75 08             	push   DWORD PTR [ebp+0x8]
    36b4:	e8 3b ff ff ff       	call   0x35f4
    36b9:	83 c4 04             	add    esp,0x4
    36bc:	89 45 f4             	mov    DWORD PTR [ebp-0xc],eax
    36bf:	ff 75 0c             	push   DWORD PTR [ebp+0xc]
    36c2:	e8 2d ff ff ff       	call   0x35f4
    36c7:	83 c4 04             	add    esp,0x4
    36ca:	89 45 f0             	mov    DWORD PTR [ebp-0x10],eax
    36cd:	8b 55 f4             	mov    edx,DWORD PTR [ebp-0xc]
    36d0:	8b 45 f0             	mov    eax,DWORD PTR [ebp-0x10]
    36d3:	01 d0                	add    eax,edx
    36d5:	83 c0 01             	add    eax,0x1
    36d8:	83 ec 0c             	sub    esp,0xc
    36db:	50                   	push   eax
    36dc:	e8 86 ef ff ff       	call   0x2667
    36e1:	83 c4 10             	add    esp,0x10
    36e4:	89 45 ec             	mov    DWORD PTR [ebp-0x14],eax
    36e7:	83 7d ec 00          	cmp    DWORD PTR [ebp-0x14],0x0
    36eb:	75 07                	jne    0x36f4
    36ed:	b8 00 00 00 00       	mov    eax,0x0
    36f2:	eb 35                	jmp    0x3729
    36f4:	83 ec 04             	sub    esp,0x4
    36f7:	ff 75 f4             	push   DWORD PTR [ebp-0xc]
    36fa:	ff 75 ec             	push   DWORD PTR [ebp-0x14]
    36fd:	ff 75 08             	push   DWORD PTR [ebp+0x8]
    3700:	e8 57 03 00 00       	call   0x3a5c
    3705:	83 c4 10             	add    esp,0x10
    3708:	8b 45 f0             	mov    eax,DWORD PTR [ebp-0x10]
    370b:	8d 50 01             	lea    edx,[eax+0x1]
    370e:	8b 4d ec             	mov    ecx,DWORD PTR [ebp-0x14]
    3711:	8b 45 f4             	mov    eax,DWORD PTR [ebp-0xc]
    3714:	01 c8                	add    eax,ecx
    3716:	83 ec 04             	sub    esp,0x4
    3719:	52                   	push   edx
    371a:	50                   	push   eax
    371b:	ff 75 0c             	push   DWORD PTR [ebp+0xc]
    371e:	e8 39 03 00 00       	call   0x3a5c
    3723:	83 c4 10             	add    esp,0x10
    3726:	8b 45 ec             	mov    eax,DWORD PTR [ebp-0x14]
    3729:	c9                   	leave
    372a:	c3                   	ret
    372b:	55                   	push   ebp
    372c:	89 e5                	mov    ebp,esp
    372e:	83 ec 18             	sub    esp,0x18
    3731:	83 7d 08 00          	cmp    DWORD PTR [ebp+0x8],0x0
    3735:	75 07                	jne    0x373e
    3737:	b8 00 00 00 00       	mov    eax,0x0
    373c:	eb 7d                	jmp    0x37bb
    373e:	ff 75 08             	push   DWORD PTR [ebp+0x8]
    3741:	e8 d5 fe ff ff       	call   0x361b
    3746:	83 c4 04             	add    esp,0x4
    3749:	89 45 f4             	mov    DWORD PTR [ebp-0xc],eax
    374c:	8b 45 0c             	mov    eax,DWORD PTR [ebp+0xc]
    374f:	3b 45 f4             	cmp    eax,DWORD PTR [ebp-0xc]
    3752:	72 07                	jb     0x375b
    3754:	b8 00 00 00 00       	mov    eax,0x0
    3759:	eb 60                	jmp    0x37bb
    375b:	8b 55 0c             	mov    edx,DWORD PTR [ebp+0xc]
    375e:	8b 45 10             	mov    eax,DWORD PTR [ebp+0x10]
    3761:	01 d0                	add    eax,edx
    3763:	39 45 f4             	cmp    DWORD PTR [ebp-0xc],eax
    3766:	73 09                	jae    0x3771
    3768:	8b 45 f4             	mov    eax,DWORD PTR [ebp-0xc]
    376b:	2b 45 0c             	sub    eax,DWORD PTR [ebp+0xc]
    376e:	89 45 10             	mov    DWORD PTR [ebp+0x10],eax
    3771:	8b 45 10             	mov    eax,DWORD PTR [ebp+0x10]
    3774:	83 c0 01             	add    eax,0x1
    3777:	83 ec 0c             	sub    esp,0xc
    377a:	50                   	push   eax
    377b:	e8 e7 ee ff ff       	call   0x2667
    3780:	83 c4 10             	add    esp,0x10
    3783:	89 45 f0             	mov    DWORD PTR [ebp-0x10],eax
    3786:	83 7d f0 00          	cmp    DWORD PTR [ebp-0x10],0x0
    378a:	75 07                	jne    0x3793
    378c:	b8 00 00 00 00       	mov    eax,0x0
    3791:	eb 28                	jmp    0x37bb
    3793:	8b 55 08             	mov    edx,DWORD PTR [ebp+0x8]
    3796:	8b 45 0c             	mov    eax,DWORD PTR [ebp+0xc]
    3799:	01 d0                	add    eax,edx
    379b:	83 ec 04             	sub    esp,0x4
    379e:	ff 75 10             	push   DWORD PTR [ebp+0x10]
    37a1:	ff 75 f0             	push   DWORD PTR [ebp-0x10]
    37a4:	50                   	push   eax
    37a5:	e8 b2 02 00 00       	call   0x3a5c
    37aa:	83 c4 10             	add    esp,0x10
    37ad:	8b 55 f0             	mov    edx,DWORD PTR [ebp-0x10]
    37b0:	8b 45 10             	mov    eax,DWORD PTR [ebp+0x10]
    37b3:	01 d0                	add    eax,edx
    37b5:	c6 00 00             	mov    BYTE PTR [eax],0x0
    37b8:	8b 45 f0             	mov    eax,DWORD PTR [ebp-0x10]
    37bb:	c9                   	leave
    37bc:	c3                   	ret
    37bd:	55                   	push   ebp
    37be:	89 e5                	mov    ebp,esp
    37c0:	83 ec 28             	sub    esp,0x28
    37c3:	8b 55 0c             	mov    edx,DWORD PTR [ebp+0xc]
    37c6:	8b 45 10             	mov    eax,DWORD PTR [ebp+0x10]
    37c9:	88 55 e4             	mov    BYTE PTR [ebp-0x1c],dl
    37cc:	88 45 e0             	mov    BYTE PTR [ebp-0x20],al
    37cf:	83 7d 08 00          	cmp    DWORD PTR [ebp+0x8],0x0
    37d3:	75 0a                	jne    0x37df
    37d5:	b8 00 00 00 00       	mov    eax,0x0
    37da:	e9 88 00 00 00       	jmp    0x3867
    37df:	ff 75 08             	push   DWORD PTR [ebp+0x8]
    37e2:	e8 34 fe ff ff       	call   0x361b
    37e7:	83 c4 04             	add    esp,0x4
    37ea:	89 45 f0             	mov    DWORD PTR [ebp-0x10],eax
    37ed:	8b 45 f0             	mov    eax,DWORD PTR [ebp-0x10]
    37f0:	83 c0 01             	add    eax,0x1
    37f3:	83 ec 0c             	sub    esp,0xc
    37f6:	50                   	push   eax
    37f7:	e8 6b ee ff ff       	call   0x2667
    37fc:	83 c4 10             	add    esp,0x10
    37ff:	89 45 ec             	mov    DWORD PTR [ebp-0x14],eax
    3802:	83 7d ec 00          	cmp    DWORD PTR [ebp-0x14],0x0
    3806:	75 07                	jne    0x380f
    3808:	b8 00 00 00 00       	mov    eax,0x0
    380d:	eb 58                	jmp    0x3867
    380f:	c7 45 f4 00 00 00 00 	mov    DWORD PTR [ebp-0xc],0x0
    3816:	eb 39                	jmp    0x3851
    3818:	8b 55 08             	mov    edx,DWORD PTR [ebp+0x8]
    381b:	8b 45 f4             	mov    eax,DWORD PTR [ebp-0xc]
    381e:	01 d0                	add    eax,edx
    3820:	0f b6 00             	movzx  eax,BYTE PTR [eax]
    3823:	38 45 e4             	cmp    BYTE PTR [ebp-0x1c],al
    3826:	75 10                	jne    0x3838
    3828:	8b 55 ec             	mov    edx,DWORD PTR [ebp-0x14]
    382b:	8b 45 f4             	mov    eax,DWORD PTR [ebp-0xc]
    382e:	01 c2                	add    edx,eax
    3830:	0f b6 45 e0          	movzx  eax,BYTE PTR [ebp-0x20]
    3834:	88 02                	mov    BYTE PTR [edx],al
    3836:	eb 15                	jmp    0x384d
    3838:	8b 55 08             	mov    edx,DWORD PTR [ebp+0x8]
    383b:	8b 45 f4             	mov    eax,DWORD PTR [ebp-0xc]
    383e:	01 d0                	add    eax,edx
    3840:	8b 4d ec             	mov    ecx,DWORD PTR [ebp-0x14]
    3843:	8b 55 f4             	mov    edx,DWORD PTR [ebp-0xc]
    3846:	01 ca                	add    edx,ecx
    3848:	0f b6 00             	movzx  eax,BYTE PTR [eax]
    384b:	88 02                	mov    BYTE PTR [edx],al
    384d:	83 45 f4 01          	add    DWORD PTR [ebp-0xc],0x1
    3851:	8b 45 f4             	mov    eax,DWORD PTR [ebp-0xc]
    3854:	3b 45 f0             	cmp    eax,DWORD PTR [ebp-0x10]
    3857:	72 bf                	jb     0x3818
    3859:	8b 55 ec             	mov    edx,DWORD PTR [ebp-0x14]
    385c:	8b 45 f0             	mov    eax,DWORD PTR [ebp-0x10]
    385f:	01 d0                	add    eax,edx
    3861:	c6 00 00             	mov    BYTE PTR [eax],0x0
    3864:	8b 45 ec             	mov    eax,DWORD PTR [ebp-0x14]
    3867:	c9                   	leave
    3868:	c3                   	ret
    3869:	55                   	push   ebp
    386a:	89 e5                	mov    ebp,esp
    386c:	83 ec 48             	sub    esp,0x48
    386f:	83 7d 08 00          	cmp    DWORD PTR [ebp+0x8],0x0
    3873:	74 0c                	je     0x3881
    3875:	83 7d 0c 00          	cmp    DWORD PTR [ebp+0xc],0x0
    3879:	74 06                	je     0x3881
    387b:	83 7d 10 00          	cmp    DWORD PTR [ebp+0x10],0x0
    387f:	75 0a                	jne    0x388b
    3881:	b8 00 00 00 00       	mov    eax,0x0
    3886:	e9 cf 01 00 00       	jmp    0x3a5a
    388b:	ff 75 08             	push   DWORD PTR [ebp+0x8]
    388e:	e8 61 fd ff ff       	call   0x35f4
    3893:	83 c4 04             	add    esp,0x4
    3896:	89 45 d4             	mov    DWORD PTR [ebp-0x2c],eax
    3899:	ff 75 0c             	push   DWORD PTR [ebp+0xc]
    389c:	e8 53 fd ff ff       	call   0x35f4
    38a1:	83 c4 04             	add    esp,0x4
    38a4:	89 45 d0             	mov    DWORD PTR [ebp-0x30],eax
    38a7:	ff 75 10             	push   DWORD PTR [ebp+0x10]
    38aa:	e8 45 fd ff ff       	call   0x35f4
    38af:	83 c4 04             	add    esp,0x4
    38b2:	89 45 cc             	mov    DWORD PTR [ebp-0x34],eax
    38b5:	83 7d d0 00          	cmp    DWORD PTR [ebp-0x30],0x0
    38b9:	75 13                	jne    0x38ce
    38bb:	83 ec 0c             	sub    esp,0xc
    38be:	ff 75 08             	push   DWORD PTR [ebp+0x8]
    38c1:	e8 72 fd ff ff       	call   0x3638
    38c6:	83 c4 10             	add    esp,0x10
    38c9:	e9 8c 01 00 00       	jmp    0x3a5a
    38ce:	c7 45 f4 00 00 00 00 	mov    DWORD PTR [ebp-0xc],0x0
    38d5:	c7 45 f0 00 00 00 00 	mov    DWORD PTR [ebp-0x10],0x0
    38dc:	eb 54                	jmp    0x3932
    38de:	c6 45 ef 01          	mov    BYTE PTR [ebp-0x11],0x1
    38e2:	c7 45 e8 00 00 00 00 	mov    DWORD PTR [ebp-0x18],0x0
    38e9:	eb 29                	jmp    0x3914
    38eb:	8b 55 f0             	mov    edx,DWORD PTR [ebp-0x10]
    38ee:	8b 45 e8             	mov    eax,DWORD PTR [ebp-0x18]
    38f1:	01 c2                	add    edx,eax
    38f3:	8b 45 08             	mov    eax,DWORD PTR [ebp+0x8]
    38f6:	01 d0                	add    eax,edx
    38f8:	0f b6 10             	movzx  edx,BYTE PTR [eax]
    38fb:	8b 4d 0c             	mov    ecx,DWORD PTR [ebp+0xc]
    38fe:	8b 45 e8             	mov    eax,DWORD PTR [ebp-0x18]
    3901:	01 c8                	add    eax,ecx
    3903:	0f b6 00             	movzx  eax,BYTE PTR [eax]
    3906:	38 c2                	cmp    dl,al
    3908:	74 06                	je     0x3910
    390a:	c6 45 ef 00          	mov    BYTE PTR [ebp-0x11],0x0
    390e:	eb 0c                	jmp    0x391c
    3910:	83 45 e8 01          	add    DWORD PTR [ebp-0x18],0x1
    3914:	8b 45 e8             	mov    eax,DWORD PTR [ebp-0x18]
    3917:	3b 45 d0             	cmp    eax,DWORD PTR [ebp-0x30]
    391a:	72 cf                	jb     0x38eb
    391c:	80 7d ef 00          	cmp    BYTE PTR [ebp-0x11],0x0
    3920:	74 0c                	je     0x392e
    3922:	83 45 f4 01          	add    DWORD PTR [ebp-0xc],0x1
    3926:	8b 45 d0             	mov    eax,DWORD PTR [ebp-0x30]
    3929:	01 45 f0             	add    DWORD PTR [ebp-0x10],eax
    392c:	eb 04                	jmp    0x3932
    392e:	83 45 f0 01          	add    DWORD PTR [ebp-0x10],0x1
    3932:	8b 45 d4             	mov    eax,DWORD PTR [ebp-0x2c]
    3935:	2b 45 d0             	sub    eax,DWORD PTR [ebp-0x30]
    3938:	3b 45 f0             	cmp    eax,DWORD PTR [ebp-0x10]
    393b:	73 a1                	jae    0x38de
    393d:	83 7d f4 00          	cmp    DWORD PTR [ebp-0xc],0x0
    3941:	75 13                	jne    0x3956
    3943:	83 ec 0c             	sub    esp,0xc
    3946:	ff 75 08             	push   DWORD PTR [ebp+0x8]
    3949:	e8 ea fc ff ff       	call   0x3638
    394e:	83 c4 10             	add    esp,0x10
    3951:	e9 04 01 00 00       	jmp    0x3a5a
    3956:	8b 45 f4             	mov    eax,DWORD PTR [ebp-0xc]
    3959:	0f af 45 cc          	imul   eax,DWORD PTR [ebp-0x34]
    395d:	89 c2                	mov    edx,eax
    395f:	8b 45 d4             	mov    eax,DWORD PTR [ebp-0x2c]
    3962:	01 c2                	add    edx,eax
    3964:	8b 45 f4             	mov    eax,DWORD PTR [ebp-0xc]
    3967:	0f af 45 d0          	imul   eax,DWORD PTR [ebp-0x30]
    396b:	29 c2                	sub    edx,eax
    396d:	89 55 c8             	mov    DWORD PTR [ebp-0x38],edx
    3970:	8b 45 c8             	mov    eax,DWORD PTR [ebp-0x38]
    3973:	83 c0 01             	add    eax,0x1
    3976:	83 ec 0c             	sub    esp,0xc
    3979:	50                   	push   eax
    397a:	e8 e8 ec ff ff       	call   0x2667
    397f:	83 c4 10             	add    esp,0x10
    3982:	89 45 c4             	mov    DWORD PTR [ebp-0x3c],eax
    3985:	83 7d c4 00          	cmp    DWORD PTR [ebp-0x3c],0x0
    3989:	75 0a                	jne    0x3995
    398b:	b8 00 00 00 00       	mov    eax,0x0
    3990:	e9 c5 00 00 00       	jmp    0x3a5a
    3995:	c7 45 e4 00 00 00 00 	mov    DWORD PTR [ebp-0x1c],0x0
    399c:	c7 45 e0 00 00 00 00 	mov    DWORD PTR [ebp-0x20],0x0
    39a3:	e9 98 00 00 00       	jmp    0x3a40
    39a8:	c6 45 df 00          	mov    BYTE PTR [ebp-0x21],0x0
    39ac:	8b 45 d4             	mov    eax,DWORD PTR [ebp-0x2c]
    39af:	2b 45 d0             	sub    eax,DWORD PTR [ebp-0x30]
    39b2:	3b 45 e4             	cmp    eax,DWORD PTR [ebp-0x1c]
    39b5:	72 3e                	jb     0x39f5
    39b7:	c6 45 df 01          	mov    BYTE PTR [ebp-0x21],0x1
    39bb:	c7 45 d8 00 00 00 00 	mov    DWORD PTR [ebp-0x28],0x0
    39c2:	eb 29                	jmp    0x39ed
    39c4:	8b 55 e4             	mov    edx,DWORD PTR [ebp-0x1c]
    39c7:	8b 45 d8             	mov    eax,DWORD PTR [ebp-0x28]
    39ca:	01 c2                	add    edx,eax
    39cc:	8b 45 08             	mov    eax,DWORD PTR [ebp+0x8]
    39cf:	01 d0                	add    eax,edx
    39d1:	0f b6 10             	movzx  edx,BYTE PTR [eax]
    39d4:	8b 4d 0c             	mov    ecx,DWORD PTR [ebp+0xc]
    39d7:	8b 45 d8             	mov    eax,DWORD PTR [ebp-0x28]
    39da:	01 c8                	add    eax,ecx
    39dc:	0f b6 00             	movzx  eax,BYTE PTR [eax]
    39df:	38 c2                	cmp    dl,al
    39e1:	74 06                	je     0x39e9
    39e3:	c6 45 df 00          	mov    BYTE PTR [ebp-0x21],0x0
    39e7:	eb 0c                	jmp    0x39f5
    39e9:	83 45 d8 01          	add    DWORD PTR [ebp-0x28],0x1
    39ed:	8b 45 d8             	mov    eax,DWORD PTR [ebp-0x28]
    39f0:	3b 45 d0             	cmp    eax,DWORD PTR [ebp-0x30]
    39f3:	72 cf                	jb     0x39c4
    39f5:	80 7d df 00          	cmp    BYTE PTR [ebp-0x21],0x0
    39f9:	74 28                	je     0x3a23
    39fb:	8b 55 c4             	mov    edx,DWORD PTR [ebp-0x3c]
    39fe:	8b 45 e0             	mov    eax,DWORD PTR [ebp-0x20]
    3a01:	01 d0                	add    eax,edx
    3a03:	83 ec 04             	sub    esp,0x4
    3a06:	ff 75 cc             	push   DWORD PTR [ebp-0x34]
    3a09:	50                   	push   eax
    3a0a:	ff 75 10             	push   DWORD PTR [ebp+0x10]
    3a0d:	e8 4a 00 00 00       	call   0x3a5c
    3a12:	83 c4 10             	add    esp,0x10
    3a15:	8b 45 cc             	mov    eax,DWORD PTR [ebp-0x34]
    3a18:	01 45 e0             	add    DWORD PTR [ebp-0x20],eax
    3a1b:	8b 45 d0             	mov    eax,DWORD PTR [ebp-0x30]
    3a1e:	01 45 e4             	add    DWORD PTR [ebp-0x1c],eax
    3a21:	eb 1d                	jmp    0x3a40
    3a23:	8b 55 08             	mov    edx,DWORD PTR [ebp+0x8]
    3a26:	8b 45 e4             	mov    eax,DWORD PTR [ebp-0x1c]
    3a29:	01 d0                	add    eax,edx
    3a2b:	8b 4d c4             	mov    ecx,DWORD PTR [ebp-0x3c]
    3a2e:	8b 55 e0             	mov    edx,DWORD PTR [ebp-0x20]
    3a31:	01 ca                	add    edx,ecx
    3a33:	0f b6 00             	movzx  eax,BYTE PTR [eax]
    3a36:	88 02                	mov    BYTE PTR [edx],al
    3a38:	83 45 e0 01          	add    DWORD PTR [ebp-0x20],0x1
    3a3c:	83 45 e4 01          	add    DWORD PTR [ebp-0x1c],0x1
    3a40:	8b 45 e4             	mov    eax,DWORD PTR [ebp-0x1c]
    3a43:	3b 45 d4             	cmp    eax,DWORD PTR [ebp-0x2c]
    3a46:	0f 82 5c ff ff ff    	jb     0x39a8
    3a4c:	8b 55 c4             	mov    edx,DWORD PTR [ebp-0x3c]
    3a4f:	8b 45 c8             	mov    eax,DWORD PTR [ebp-0x38]
    3a52:	01 d0                	add    eax,edx
    3a54:	c6 00 00             	mov    BYTE PTR [eax],0x0
    3a57:	8b 45 c4             	mov    eax,DWORD PTR [ebp-0x3c]
    3a5a:	c9                   	leave
    3a5b:	c3                   	ret
    3a5c:	55                   	push   ebp
    3a5d:	89 e5                	mov    ebp,esp
    3a5f:	83 ec 10             	sub    esp,0x10
    3a62:	8b 45 08             	mov    eax,DWORD PTR [ebp+0x8]
    3a65:	89 45 fc             	mov    DWORD PTR [ebp-0x4],eax
    3a68:	8b 45 0c             	mov    eax,DWORD PTR [ebp+0xc]
    3a6b:	89 45 f8             	mov    DWORD PTR [ebp-0x8],eax
    3a6e:	c7 45 f4 00 00 00 00 	mov    DWORD PTR [ebp-0xc],0x0
    3a75:	eb 1b                	jmp    0x3a92
    3a77:	8b 55 fc             	mov    edx,DWORD PTR [ebp-0x4]
    3a7a:	8d 42 01             	lea    eax,[edx+0x1]
    3a7d:	89 45 fc             	mov    DWORD PTR [ebp-0x4],eax
    3a80:	8b 45 f8             	mov    eax,DWORD PTR [ebp-0x8]
    3a83:	8d 48 01             	lea    ecx,[eax+0x1]
    3a86:	89 4d f8             	mov    DWORD PTR [ebp-0x8],ecx
    3a89:	0f b6 12             	movzx  edx,BYTE PTR [edx]
    3a8c:	88 10                	mov    BYTE PTR [eax],dl
    3a8e:	83 45 f4 01          	add    DWORD PTR [ebp-0xc],0x1
    3a92:	8b 45 f4             	mov    eax,DWORD PTR [ebp-0xc]
    3a95:	3b 45 10             	cmp    eax,DWORD PTR [ebp+0x10]
    3a98:	72 dd                	jb     0x3a77
    3a9a:	90                   	nop
    3a9b:	90                   	nop
    3a9c:	c9                   	leave
    3a9d:	c3                   	ret
    3a9e:	55                   	push   ebp
    3a9f:	89 e5                	mov    ebp,esp
    3aa1:	83 ec 14             	sub    esp,0x14
    3aa4:	8b 45 10             	mov    eax,DWORD PTR [ebp+0x10]
    3aa7:	88 45 ec             	mov    BYTE PTR [ebp-0x14],al
    3aaa:	8b 45 08             	mov    eax,DWORD PTR [ebp+0x8]
    3aad:	89 45 fc             	mov    DWORD PTR [ebp-0x4],eax
    3ab0:	c7 45 f8 00 00 00 00 	mov    DWORD PTR [ebp-0x8],0x0
    3ab7:	eb 11                	jmp    0x3aca
    3ab9:	8b 45 fc             	mov    eax,DWORD PTR [ebp-0x4]
    3abc:	0f b6 55 ec          	movzx  edx,BYTE PTR [ebp-0x14]
    3ac0:	88 10                	mov    BYTE PTR [eax],dl
    3ac2:	83 45 fc 01          	add    DWORD PTR [ebp-0x4],0x1
    3ac6:	83 45 f8 01          	add    DWORD PTR [ebp-0x8],0x1
    3aca:	8b 45 f8             	mov    eax,DWORD PTR [ebp-0x8]
    3acd:	3b 45 0c             	cmp    eax,DWORD PTR [ebp+0xc]
    3ad0:	72 e7                	jb     0x3ab9
    3ad2:	90                   	nop
    3ad3:	90                   	nop
    3ad4:	c9                   	leave
    3ad5:	c3                   	ret
    3ad6:	55                   	push   ebp
    3ad7:	89 e5                	mov    ebp,esp
    3ad9:	83 ec 10             	sub    esp,0x10
    3adc:	8b 45 08             	mov    eax,DWORD PTR [ebp+0x8]
    3adf:	89 45 fc             	mov    DWORD PTR [ebp-0x4],eax
    3ae2:	8b 45 10             	mov    eax,DWORD PTR [ebp+0x10]
    3ae5:	89 45 f0             	mov    DWORD PTR [ebp-0x10],eax
    3ae8:	c7 45 f8 00 00 00 00 	mov    DWORD PTR [ebp-0x8],0x0
    3aef:	eb 38                	jmp    0x3b29
    3af1:	c7 45 f4 00 00 00 00 	mov    DWORD PTR [ebp-0xc],0x0
    3af8:	eb 1f                	jmp    0x3b19
    3afa:	8b 55 f0             	mov    edx,DWORD PTR [ebp-0x10]
    3afd:	8b 45 f4             	mov    eax,DWORD PTR [ebp-0xc]
    3b00:	8d 0c 02             	lea    ecx,[edx+eax*1]
    3b03:	8b 45 fc             	mov    eax,DWORD PTR [ebp-0x4]
    3b06:	8d 50 01             	lea    edx,[eax+0x1]
    3b09:	89 55 fc             	mov    DWORD PTR [ebp-0x4],edx
    3b0c:	0f b6 11             	movzx  edx,BYTE PTR [ecx]
    3b0f:	88 10                	mov    BYTE PTR [eax],dl
    3b11:	83 45 f8 01          	add    DWORD PTR [ebp-0x8],0x1
    3b15:	83 45 f4 01          	add    DWORD PTR [ebp-0xc],0x1
    3b19:	8b 45 f4             	mov    eax,DWORD PTR [ebp-0xc]
    3b1c:	3b 45 14             	cmp    eax,DWORD PTR [ebp+0x14]
    3b1f:	73 08                	jae    0x3b29
    3b21:	8b 45 f8             	mov    eax,DWORD PTR [ebp-0x8]
    3b24:	3b 45 0c             	cmp    eax,DWORD PTR [ebp+0xc]
    3b27:	72 d1                	jb     0x3afa
    3b29:	8b 45 f8             	mov    eax,DWORD PTR [ebp-0x8]
    3b2c:	3b 45 0c             	cmp    eax,DWORD PTR [ebp+0xc]
    3b2f:	72 c0                	jb     0x3af1
    3b31:	90                   	nop
    3b32:	90                   	nop
    3b33:	c9                   	leave
    3b34:	c3                   	ret
    3b35:	66 90                	xchg   ax,ax
    3b37:	66 90                	xchg   ax,ax
    3b39:	66 90                	xchg   ax,ax
    3b3b:	66 90                	xchg   ax,ax
    3b3d:	66 90                	xchg   ax,ax
    3b3f:	90                   	nop
    3b40:	8a 44 24 04          	mov    al,BYTE PTR [esp+0x4]
    3b44:	e6 f4                	out    0xf4,al
    3b46:	fa                   	cli
    3b47:	f4                   	hlt
    3b48:	eb fc                	jmp    0x3b46
    3b4a:	66 8b 54 24 04       	mov    dx,WORD PTR [esp+0x4]
    3b4f:	ec                   	in     al,dx
    3b50:	c3                   	ret
    3b51:	66 8b 54 24 04       	mov    dx,WORD PTR [esp+0x4]
    3b56:	66 ed                	in     ax,dx
    3b58:	c3                   	ret
    3b59:	57                   	push   edi
    3b5a:	66 8b 54 24 08       	mov    dx,WORD PTR [esp+0x8]
    3b5f:	8b 7c 24 0c          	mov    edi,DWORD PTR [esp+0xc]
    3b63:	6c                   	ins    BYTE PTR es:[edi],dx
    3b64:	5f                   	pop    edi
    3b65:	c3                   	ret
    3b66:	57                   	push   edi
    3b67:	66 8b 54 24 08       	mov    dx,WORD PTR [esp+0x8]
    3b6c:	8b 7c 24 0c          	mov    edi,DWORD PTR [esp+0xc]
    3b70:	66 6d                	ins    WORD PTR es:[edi],dx
    3b72:	5f                   	pop    edi
    3b73:	c3                   	ret
    3b74:	57                   	push   edi
    3b75:	51                   	push   ecx
    3b76:	66 8b 54 24 0c       	mov    dx,WORD PTR [esp+0xc]
    3b7b:	8b 7c 24 10          	mov    edi,DWORD PTR [esp+0x10]
    3b7f:	8b 4c 24 14          	mov    ecx,DWORD PTR [esp+0x14]
    3b83:	f3 6c                	rep ins BYTE PTR es:[edi],dx
    3b85:	59                   	pop    ecx
    3b86:	5f                   	pop    edi
    3b87:	c3                   	ret
    3b88:	57                   	push   edi
    3b89:	51                   	push   ecx
    3b8a:	66 8b 54 24 0c       	mov    dx,WORD PTR [esp+0xc]
    3b8f:	8b 7c 24 10          	mov    edi,DWORD PTR [esp+0x10]
    3b93:	8b 4c 24 14          	mov    ecx,DWORD PTR [esp+0x14]
    3b97:	f3 66 6d             	rep ins WORD PTR es:[edi],dx
    3b9a:	59                   	pop    ecx
    3b9b:	5f                   	pop    edi
    3b9c:	c3                   	ret
    3b9d:	66 8b 54 24 04       	mov    dx,WORD PTR [esp+0x4]
    3ba2:	8a 44 24 08          	mov    al,BYTE PTR [esp+0x8]
    3ba6:	ee                   	out    dx,al
    3ba7:	c3                   	ret
    3ba8:	66 8b 54 24 04       	mov    dx,WORD PTR [esp+0x4]
    3bad:	66 8b 44 24 08       	mov    ax,WORD PTR [esp+0x8]
    3bb2:	66 ef                	out    dx,ax
    3bb4:	c3                   	ret
    3bb5:	56                   	push   esi
    3bb6:	66 8b 54 24 08       	mov    dx,WORD PTR [esp+0x8]
    3bbb:	8b 74 24 0c          	mov    esi,DWORD PTR [esp+0xc]
    3bbf:	6e                   	outs   dx,BYTE PTR ds:[esi]
    3bc0:	5e                   	pop    esi
    3bc1:	c3                   	ret
    3bc2:	56                   	push   esi
    3bc3:	66 8b 54 24 08       	mov    dx,WORD PTR [esp+0x8]
    3bc8:	8b 74 24 0c          	mov    esi,DWORD PTR [esp+0xc]
    3bcc:	66 6f                	outs   dx,WORD PTR ds:[esi]
    3bce:	5e                   	pop    esi
    3bcf:	c3                   	ret
    3bd0:	56                   	push   esi
    3bd1:	51                   	push   ecx
    3bd2:	66 8b 54 24 0c       	mov    dx,WORD PTR [esp+0xc]
    3bd7:	8b 74 24 10          	mov    esi,DWORD PTR [esp+0x10]
    3bdb:	8b 4c 24 14          	mov    ecx,DWORD PTR [esp+0x14]
    3bdf:	f3 6e                	rep outs dx,BYTE PTR ds:[esi]
    3be1:	59                   	pop    ecx
    3be2:	5e                   	pop    esi
    3be3:	c3                   	ret
    3be4:	56                   	push   esi
    3be5:	51                   	push   ecx
    3be6:	66 8b 54 24 0c       	mov    dx,WORD PTR [esp+0xc]
    3beb:	8b 74 24 10          	mov    esi,DWORD PTR [esp+0x10]
    3bef:	8b 4c 24 14          	mov    ecx,DWORD PTR [esp+0x14]
    3bf3:	f3 66 6f             	rep outs dx,WORD PTR ds:[esi]
    3bf6:	59                   	pop    ecx
    3bf7:	5e                   	pop    esi
    3bf8:	c3                   	ret
    3bf9:	66 90                	xchg   ax,ax
    3bfb:	66 90                	xchg   ax,ax
    3bfd:	66 90                	xchg   ax,ax
    3bff:	90                   	nop
    3c00:	8b 44 24 04          	mov    eax,DWORD PTR [esp+0x4]
    3c04:	0f 22 d8             	mov    cr3,eax
    3c07:	c3                   	ret
    3c08:	66 90                	xchg   ax,ax
    3c0a:	66 90                	xchg   ax,ax
    3c0c:	66 90                	xchg   ax,ax
    3c0e:	66 90                	xchg   ax,ax
    3c10:	b0 54                	mov    al,0x54
    3c12:	e6 e9                	out    0xe9,al
    3c14:	c3                   	ret
    3c15:	66 90                	xchg   ax,ax
    3c17:	66 90                	xchg   ax,ax
    3c19:	66 90                	xchg   ax,ax
    3c1b:	66 90                	xchg   ax,ax
    3c1d:	66 90                	xchg   ax,ax
    3c1f:	90                   	nop
    3c20:	42                   	inc    edx
    3c21:	6f                   	outs   dx,DWORD PTR ds:[esi]
    3c22:	6f                   	outs   dx,DWORD PTR ds:[esi]
    3c23:	74 73                	je     0x3c98
    3c25:	74 72                	je     0x3c99
    3c27:	61                   	popa
    3c28:	70 20                	jo     0x3c4a
    3c2a:	61                   	popa
    3c2b:	63 74 69 76          	arpl   WORD PTR [ecx+ebp*2+0x76],esi
    3c2f:	65 2c 20             	gs sub al,0x20
    3c32:	73 74                	jae    0x3ca8
    3c34:	61                   	popa
    3c35:	63 6b 20             	arpl   WORD PTR [ebx+0x20],ebp
    3c38:	69 6e 69 74 69 61 6c 	imul   ebp,DWORD PTR [esi+0x69],0x6c616974
    3c3f:	69 7a 65 64 2c 20 65 	imul   edi,DWORD PTR [edx+0x65],0x65202c64
    3c46:	78 74                	js     0x3cbc
    3c48:	65 6e                	outs   dx,BYTE PTR gs:[esi]
    3c4a:	64 65 64 20 47 44    	fs gs and BYTE PTR fs:[edi+0x44],al
    3c50:	54                   	push   esp
    3c51:	20 65 6e             	and    BYTE PTR [ebp+0x6e],ah
    3c54:	61                   	popa
    3c55:	62 6c 65 64          	bound  ebp,QWORD PTR [ebp+eiz*2+0x64]
    3c59:	21 00                	and    DWORD PTR [eax],eax
    3c5b:	41                   	inc    ecx
    3c5c:	6c                   	ins    BYTE PTR es:[edi],dx
    3c5d:	6c                   	ins    BYTE PTR es:[edi],dx
    3c5e:	6f                   	outs   dx,DWORD PTR ds:[esi]
    3c5f:	63 61 74             	arpl   WORD PTR [ecx+0x74],esp
    3c62:	6f                   	outs   dx,DWORD PTR ds:[esi]
    3c63:	72 20                	jb     0x3c85
    3c65:	69 6e 69 74 69 61 6c 	imul   ebp,DWORD PTR [esi+0x69],0x6c616974
    3c6c:	69 7a 61 74 69 6f 6e 	imul   edi,DWORD PTR [edx+0x61],0x6e6f6974
    3c73:	20 73 74             	and    BYTE PTR [ebx+0x74],dh
    3c76:	61                   	popa
    3c77:	72 74                	jb     0x3ced
    3c79:	65 64 21 00          	gs and DWORD PTR fs:[eax],eax
    3c7d:	41                   	inc    ecx
    3c7e:	6c                   	ins    BYTE PTR es:[edi],dx
    3c7f:	6c                   	ins    BYTE PTR es:[edi],dx
    3c80:	6f                   	outs   dx,DWORD PTR ds:[esi]
    3c81:	63 61 74             	arpl   WORD PTR [ecx+0x74],esp
    3c84:	6f                   	outs   dx,DWORD PTR ds:[esi]
    3c85:	72 20                	jb     0x3ca7
    3c87:	69 6e 69 74 69 61 6c 	imul   ebp,DWORD PTR [esi+0x69],0x6c616974
    3c8e:	69 7a 61 74 69 6f 6e 	imul   edi,DWORD PTR [edx+0x61],0x6e6f6974
    3c95:	20 63 6f             	and    BYTE PTR [ebx+0x6f],ah
    3c98:	6d                   	ins    DWORD PTR es:[edi],dx
    3c99:	70 6c                	jo     0x3d07
    3c9b:	65 74 65             	gs je  0x3d03
    3c9e:	64 21 00             	and    DWORD PTR fs:[eax],eax
    3ca1:	4d                   	dec    ebp
    3ca2:	65 6d                	gs ins DWORD PTR es:[edi],dx
    3ca4:	6f                   	outs   dx,DWORD PTR ds:[esi]
    3ca5:	72 79                	jb     0x3d20
    3ca7:	20 6d 61             	and    BYTE PTR [ebp+0x61],ch
    3caa:	70 70                	jo     0x3d1c
    3cac:	69 6e 67 73 20 61 6e 	imul   ebp,DWORD PTR [esi+0x67],0x6e612073
    3cb3:	61                   	popa
    3cb4:	6c                   	ins    BYTE PTR es:[edi],dx
    3cb5:	79 7a                	jns    0x3d31
    3cb7:	61                   	popa
    3cb8:	74 69                	je     0x3d23
    3cba:	6f                   	outs   dx,DWORD PTR ds:[esi]
    3cbb:	6e                   	outs   dx,BYTE PTR ds:[esi]
    3cbc:	20 73 74             	and    BYTE PTR [ebx+0x74],dh
    3cbf:	61                   	popa
    3cc0:	72 74                	jb     0x3d36
    3cc2:	65 64 21 00          	gs and DWORD PTR fs:[eax],eax
    3cc6:	4d                   	dec    ebp
    3cc7:	65 6d                	gs ins DWORD PTR es:[edi],dx
    3cc9:	6f                   	outs   dx,DWORD PTR ds:[esi]
    3cca:	72 79                	jb     0x3d45
    3ccc:	20 6d 61             	and    BYTE PTR [ebp+0x61],ch
    3ccf:	70 70                	jo     0x3d41
    3cd1:	69 6e 67 73 20 61 6e 	imul   ebp,DWORD PTR [esi+0x67],0x6e612073
    3cd8:	61                   	popa
    3cd9:	6c                   	ins    BYTE PTR es:[edi],dx
    3cda:	79 7a                	jns    0x3d56
    3cdc:	61                   	popa
    3cdd:	74 69                	je     0x3d48
    3cdf:	6f                   	outs   dx,DWORD PTR ds:[esi]
    3ce0:	6e                   	outs   dx,BYTE PTR ds:[esi]
    3ce1:	20 63 6f             	and    BYTE PTR [ebx+0x6f],ah
    3ce4:	6d                   	ins    DWORD PTR es:[edi],dx
    3ce5:	70 6c                	jo     0x3d53
    3ce7:	65 74 65             	gs je  0x3d4f
    3cea:	64 21 00             	and    DWORD PTR fs:[eax],eax
    3ced:	50                   	push   eax
    3cee:	61                   	popa
    3cef:	67 69 6e 67 20 74 61 	imul   ebp,DWORD PTR [bp+0x67],0x62617420
    3cf6:	62 
    3cf7:	6c                   	ins    BYTE PTR es:[edi],dx
    3cf8:	65 20 69 6e          	and    BYTE PTR gs:[ecx+0x6e],ch
    3cfc:	69 74 69 61 6c 69 7a 	imul   esi,DWORD PTR [ecx+ebp*2+0x61],0x617a696c
    3d03:	61 
    3d04:	74 69                	je     0x3d6f
    3d06:	6f                   	outs   dx,DWORD PTR ds:[esi]
    3d07:	6e                   	outs   dx,BYTE PTR ds:[esi]
    3d08:	20 73 74             	and    BYTE PTR [ebx+0x74],dh
    3d0b:	61                   	popa
    3d0c:	72 74                	jb     0x3d82
    3d0e:	65 64 21 00          	gs and DWORD PTR fs:[eax],eax
    3d12:	50                   	push   eax
    3d13:	61                   	popa
    3d14:	67 69 6e 67 20 74 61 	imul   ebp,DWORD PTR [bp+0x67],0x62617420
    3d1b:	62 
    3d1c:	6c                   	ins    BYTE PTR es:[edi],dx
    3d1d:	65 20 69 6e          	and    BYTE PTR gs:[ecx+0x6e],ch
    3d21:	69 74 69 61 6c 69 7a 	imul   esi,DWORD PTR [ecx+ebp*2+0x61],0x617a696c
    3d28:	61 
    3d29:	74 69                	je     0x3d94
    3d2b:	6f                   	outs   dx,DWORD PTR ds:[esi]
    3d2c:	6e                   	outs   dx,BYTE PTR ds:[esi]
    3d2d:	20 63 6f             	and    BYTE PTR [ebx+0x6f],ah
    3d30:	6d                   	ins    DWORD PTR es:[edi],dx
    3d31:	70 6c                	jo     0x3d9f
    3d33:	65 74 65             	gs je  0x3d9b
    3d36:	64 21 00             	and    DWORD PTR fs:[eax],eax
    3d39:	4b                   	dec    ebx
    3d3a:	65 72 6e             	gs jb  0x3dab
    3d3d:	65 6c                	gs ins BYTE PTR es:[edi],dx
    3d3f:	20 6c 6f 61          	and    BYTE PTR [edi+ebp*2+0x61],ch
    3d43:	64 69 6e 67 20 73 74 	imul   ebp,DWORD PTR fs:[esi+0x67],0x61747320
    3d4a:	61 
    3d4b:	72 74                	jb     0x3dc1
    3d4d:	65 64 21 00          	gs and DWORD PTR fs:[eax],eax
    3d51:	4b                   	dec    ebx
    3d52:	65 72 6e             	gs jb  0x3dc3
    3d55:	65 6c                	gs ins BYTE PTR es:[edi],dx
    3d57:	20 6c 6f 61          	and    BYTE PTR [edi+ebp*2+0x61],ch
    3d5b:	64 69 6e 67 20 63 6f 	imul   ebp,DWORD PTR fs:[esi+0x67],0x6d6f6320
    3d62:	6d 
    3d63:	70 6c                	jo     0x3dd1
    3d65:	65 74 65             	gs je  0x3dcd
    3d68:	64 21 00             	and    DWORD PTR fs:[eax],eax
    3d6b:	44                   	inc    esp
    3d6c:	69 73 61 62 6c 69 6e 	imul   esi,DWORD PTR [ebx+0x61],0x6e696c62
    3d73:	67 20 56 47          	and    BYTE PTR [bp+0x47],dl
    3d77:	41                   	inc    ecx
    3d78:	20 61 6e             	and    BYTE PTR [ecx+0x6e],ah
    3d7b:	64 20 73 77          	and    BYTE PTR fs:[ebx+0x77],dh
    3d7f:	61                   	popa
    3d80:	70 69                	jo     0x3deb
    3d82:	6e                   	outs   dx,BYTE PTR ds:[esi]
    3d83:	67 20 74 6f          	and    BYTE PTR [si+0x6f],dh
    3d87:	20 67 72             	and    BYTE PTR [edi+0x72],ah
    3d8a:	61                   	popa
    3d8b:	70 68                	jo     0x3df5
    3d8d:	69 63 61 6c 20 6f 75 	imul   esp,DWORD PTR [ebx+0x61],0x756f206c
    3d94:	74 70                	je     0x3e06
    3d96:	75 74                	jne    0x3e0c
    3d98:	00 54 68 65          	add    BYTE PTR [eax+ebp*2+0x65],dl
    3d9c:	72 65                	jb     0x3e03
    3d9e:	20 77 69             	and    BYTE PTR [edi+0x69],dh
    3da1:	6c                   	ins    BYTE PTR es:[edi],dx
    3da2:	6c                   	ins    BYTE PTR es:[edi],dx
    3da3:	20 62 65             	and    BYTE PTR [edx+0x65],ah
    3da6:	20 6e 6f             	and    BYTE PTR [esi+0x6f],ch
    3da9:	20 6f 74             	and    BYTE PTR [edi+0x74],ch
    3dac:	68 65 72 20 6c       	push   0x6c207265
    3db1:	6f                   	outs   dx,DWORD PTR ds:[esi]
    3db2:	67 67 69 6e 67 20 75 	addr16 imul ebp,DWORD PTR [bp+0x67],0x746e7520
    3db9:	6e 74 
    3dbb:	69 6c 20 6b 65 72 6e 	imul   ebp,DWORD PTR [eax+eiz*1+0x6b],0x656e7265
    3dc2:	65 
    3dc3:	6c                   	ins    BYTE PTR es:[edi],dx
    3dc4:	20 69 73             	and    BYTE PTR [ecx+0x73],ch
    3dc7:	20 65 73             	and    BYTE PTR [ebp+0x73],ah
    3dca:	74 61                	je     0x3e2d
    3dcc:	62 69 6c             	bound  ebp,QWORD PTR [ecx+0x6c]
    3dcf:	69 73 68 65 64 00 73 	imul   esi,DWORD PTR [ebx+0x68],0x73006465
    3dd6:	74 61                	je     0x3e39
    3dd8:	72 74                	jb     0x3e4e
    3dda:	73 20                	jae    0x3dfc
    3ddc:	69 6e 20 33 00 73 74 	imul   ebp,DWORD PTR [esi+0x20],0x74730033
    3de3:	61                   	popa
    3de4:	72 74                	jb     0x3e5a
    3de6:	73 20                	jae    0x3e08
    3de8:	69 6e 20 32 00 73 74 	imul   ebp,DWORD PTR [esi+0x20],0x74730032
    3def:	61                   	popa
    3df0:	72 74                	jb     0x3e66
    3df2:	73 20                	jae    0x3e14
    3df4:	69 6e 20 31 00 90 90 	imul   ebp,DWORD PTR [esi+0x20],0x90900031
    3dfb:	90                   	nop
    3dfc:	90                   	nop
    3dfd:	90                   	nop
    3dfe:	90                   	nop
    3dff:	90                   	nop
    3e00:	01 01                	add    DWORD PTR [ecx],eax
    3e02:	01 01                	add    DWORD PTR [ecx],eax
    3e04:	01 01                	add    DWORD PTR [ecx],eax
    3e06:	01 01                	add    DWORD PTR [ecx],eax
    3e08:	01 01                	add    DWORD PTR [ecx],eax
    3e0a:	01 01                	add    DWORD PTR [ecx],eax
    3e0c:	01 01                	add    DWORD PTR [ecx],eax
    3e0e:	01 01                	add    DWORD PTR [ecx],eax
    3e10:	01 01                	add    DWORD PTR [ecx],eax
    3e12:	01 01                	add    DWORD PTR [ecx],eax
    3e14:	01 01                	add    DWORD PTR [ecx],eax
    3e16:	01 01                	add    DWORD PTR [ecx],eax
    3e18:	01 01                	add    DWORD PTR [ecx],eax
    3e1a:	01 01                	add    DWORD PTR [ecx],eax
    3e1c:	01 01                	add    DWORD PTR [ecx],eax
    3e1e:	01 01                	add    DWORD PTR [ecx],eax
    3e20:	01 01                	add    DWORD PTR [ecx],eax
    3e22:	01 01                	add    DWORD PTR [ecx],eax
    3e24:	01 01                	add    DWORD PTR [ecx],eax
    3e26:	01 01                	add    DWORD PTR [ecx],eax
    3e28:	01 01                	add    DWORD PTR [ecx],eax
    3e2a:	01 01                	add    DWORD PTR [ecx],eax
    3e2c:	01 01                	add    DWORD PTR [ecx],eax
    3e2e:	01 01                	add    DWORD PTR [ecx],eax
    3e30:	01 01                	add    DWORD PTR [ecx],eax
    3e32:	01 01                	add    DWORD PTR [ecx],eax
    3e34:	01 01                	add    DWORD PTR [ecx],eax
    3e36:	01 01                	add    DWORD PTR [ecx],eax
    3e38:	01 01                	add    DWORD PTR [ecx],eax
    3e3a:	01 01                	add    DWORD PTR [ecx],eax
    3e3c:	01 01                	add    DWORD PTR [ecx],eax
    3e3e:	01 01                	add    DWORD PTR [ecx],eax
    3e40:	01 01                	add    DWORD PTR [ecx],eax
    3e42:	01 01                	add    DWORD PTR [ecx],eax
    3e44:	01 01                	add    DWORD PTR [ecx],eax
    3e46:	01 01                	add    DWORD PTR [ecx],eax
    3e48:	01 01                	add    DWORD PTR [ecx],eax
    3e4a:	01 01                	add    DWORD PTR [ecx],eax
    3e4c:	01 01                	add    DWORD PTR [ecx],eax
    3e4e:	01 01                	add    DWORD PTR [ecx],eax
    3e50:	01 01                	add    DWORD PTR [ecx],eax
    3e52:	01 01                	add    DWORD PTR [ecx],eax
    3e54:	01 01                	add    DWORD PTR [ecx],eax
    3e56:	01 01                	add    DWORD PTR [ecx],eax
    3e58:	01 01                	add    DWORD PTR [ecx],eax
    3e5a:	01 01                	add    DWORD PTR [ecx],eax
    3e5c:	01 01                	add    DWORD PTR [ecx],eax
    3e5e:	01 01                	add    DWORD PTR [ecx],eax
    3e60:	01 01                	add    DWORD PTR [ecx],eax
    3e62:	01 01                	add    DWORD PTR [ecx],eax
    3e64:	01 01                	add    DWORD PTR [ecx],eax
    3e66:	01 01                	add    DWORD PTR [ecx],eax
    3e68:	01 01                	add    DWORD PTR [ecx],eax
    3e6a:	01 01                	add    DWORD PTR [ecx],eax
    3e6c:	01 01                	add    DWORD PTR [ecx],eax
    3e6e:	01 01                	add    DWORD PTR [ecx],eax
    3e70:	01 01                	add    DWORD PTR [ecx],eax
    3e72:	01 01                	add    DWORD PTR [ecx],eax
    3e74:	01 01                	add    DWORD PTR [ecx],eax
    3e76:	01 01                	add    DWORD PTR [ecx],eax
    3e78:	01 01                	add    DWORD PTR [ecx],eax
    3e7a:	01 01                	add    DWORD PTR [ecx],eax
    3e7c:	01 01                	add    DWORD PTR [ecx],eax
    3e7e:	01 01                	add    DWORD PTR [ecx],eax
    3e80:	01 01                	add    DWORD PTR [ecx],eax
    3e82:	01 01                	add    DWORD PTR [ecx],eax
    3e84:	01 01                	add    DWORD PTR [ecx],eax
    3e86:	01 01                	add    DWORD PTR [ecx],eax
    3e88:	01 01                	add    DWORD PTR [ecx],eax
    3e8a:	01 01                	add    DWORD PTR [ecx],eax
    3e8c:	01 01                	add    DWORD PTR [ecx],eax
    3e8e:	01 01                	add    DWORD PTR [ecx],eax
    3e90:	01 01                	add    DWORD PTR [ecx],eax
    3e92:	01 01                	add    DWORD PTR [ecx],eax
    3e94:	01 01                	add    DWORD PTR [ecx],eax
    3e96:	01 01                	add    DWORD PTR [ecx],eax
    3e98:	01 01                	add    DWORD PTR [ecx],eax
    3e9a:	01 01                	add    DWORD PTR [ecx],eax
    3e9c:	01 01                	add    DWORD PTR [ecx],eax
    3e9e:	01 01                	add    DWORD PTR [ecx],eax
    3ea0:	01 01                	add    DWORD PTR [ecx],eax
    3ea2:	01 01                	add    DWORD PTR [ecx],eax
    3ea4:	01 01                	add    DWORD PTR [ecx],eax
    3ea6:	01 01                	add    DWORD PTR [ecx],eax
    3ea8:	01 01                	add    DWORD PTR [ecx],eax
    3eaa:	01 01                	add    DWORD PTR [ecx],eax
    3eac:	01 01                	add    DWORD PTR [ecx],eax
    3eae:	01 01                	add    DWORD PTR [ecx],eax
    3eb0:	01 01                	add    DWORD PTR [ecx],eax
    3eb2:	01 01                	add    DWORD PTR [ecx],eax
    3eb4:	01 01                	add    DWORD PTR [ecx],eax
    3eb6:	01 01                	add    DWORD PTR [ecx],eax
    3eb8:	01 01                	add    DWORD PTR [ecx],eax
    3eba:	01 01                	add    DWORD PTR [ecx],eax
    3ebc:	01 01                	add    DWORD PTR [ecx],eax
    3ebe:	01 01                	add    DWORD PTR [ecx],eax
    3ec0:	01 01                	add    DWORD PTR [ecx],eax
    3ec2:	01 01                	add    DWORD PTR [ecx],eax
    3ec4:	01 01                	add    DWORD PTR [ecx],eax
    3ec6:	01 01                	add    DWORD PTR [ecx],eax
    3ec8:	01 01                	add    DWORD PTR [ecx],eax
    3eca:	01 01                	add    DWORD PTR [ecx],eax
    3ecc:	01 01                	add    DWORD PTR [ecx],eax
    3ece:	01 01                	add    DWORD PTR [ecx],eax
    3ed0:	01 01                	add    DWORD PTR [ecx],eax
    3ed2:	01 01                	add    DWORD PTR [ecx],eax
    3ed4:	01 01                	add    DWORD PTR [ecx],eax
    3ed6:	01 01                	add    DWORD PTR [ecx],eax
    3ed8:	01 01                	add    DWORD PTR [ecx],eax
    3eda:	01 01                	add    DWORD PTR [ecx],eax
    3edc:	01 01                	add    DWORD PTR [ecx],eax
    3ede:	01 01                	add    DWORD PTR [ecx],eax
    3ee0:	01 01                	add    DWORD PTR [ecx],eax
    3ee2:	01 01                	add    DWORD PTR [ecx],eax
    3ee4:	01 01                	add    DWORD PTR [ecx],eax
    3ee6:	01 01                	add    DWORD PTR [ecx],eax
    3ee8:	01 01                	add    DWORD PTR [ecx],eax
    3eea:	01 01                	add    DWORD PTR [ecx],eax
    3eec:	01 01                	add    DWORD PTR [ecx],eax
    3eee:	01 01                	add    DWORD PTR [ecx],eax
    3ef0:	01 01                	add    DWORD PTR [ecx],eax
    3ef2:	01 01                	add    DWORD PTR [ecx],eax
    3ef4:	01 01                	add    DWORD PTR [ecx],eax
    3ef6:	01 01                	add    DWORD PTR [ecx],eax
    3ef8:	01 01                	add    DWORD PTR [ecx],eax
    3efa:	01 01                	add    DWORD PTR [ecx],eax
    3efc:	01 01                	add    DWORD PTR [ecx],eax
    3efe:	01 01                	add    DWORD PTR [ecx],eax
    3f00:	01 01                	add    DWORD PTR [ecx],eax
    3f02:	01 01                	add    DWORD PTR [ecx],eax
    3f04:	01 01                	add    DWORD PTR [ecx],eax
    3f06:	01 01                	add    DWORD PTR [ecx],eax
    3f08:	01 01                	add    DWORD PTR [ecx],eax
    3f0a:	01 01                	add    DWORD PTR [ecx],eax
    3f0c:	01 01                	add    DWORD PTR [ecx],eax
    3f0e:	01 01                	add    DWORD PTR [ecx],eax
    3f10:	01 01                	add    DWORD PTR [ecx],eax
    3f12:	01 01                	add    DWORD PTR [ecx],eax
    3f14:	01 01                	add    DWORD PTR [ecx],eax
    3f16:	01 01                	add    DWORD PTR [ecx],eax
    3f18:	01 01                	add    DWORD PTR [ecx],eax
    3f1a:	01 01                	add    DWORD PTR [ecx],eax
    3f1c:	01 01                	add    DWORD PTR [ecx],eax
    3f1e:	01 01                	add    DWORD PTR [ecx],eax
    3f20:	01 01                	add    DWORD PTR [ecx],eax
    3f22:	01 01                	add    DWORD PTR [ecx],eax
    3f24:	01 01                	add    DWORD PTR [ecx],eax
    3f26:	01 01                	add    DWORD PTR [ecx],eax
    3f28:	01 01                	add    DWORD PTR [ecx],eax
    3f2a:	01 01                	add    DWORD PTR [ecx],eax
    3f2c:	01 01                	add    DWORD PTR [ecx],eax
    3f2e:	01 01                	add    DWORD PTR [ecx],eax
    3f30:	01 01                	add    DWORD PTR [ecx],eax
    3f32:	01 01                	add    DWORD PTR [ecx],eax
    3f34:	01 01                	add    DWORD PTR [ecx],eax
    3f36:	01 01                	add    DWORD PTR [ecx],eax
    3f38:	01 01                	add    DWORD PTR [ecx],eax
    3f3a:	01 01                	add    DWORD PTR [ecx],eax
    3f3c:	01 01                	add    DWORD PTR [ecx],eax
    3f3e:	01 01                	add    DWORD PTR [ecx],eax
    3f40:	01 01                	add    DWORD PTR [ecx],eax
    3f42:	01 01                	add    DWORD PTR [ecx],eax
    3f44:	01 01                	add    DWORD PTR [ecx],eax
    3f46:	01 01                	add    DWORD PTR [ecx],eax
    3f48:	01 01                	add    DWORD PTR [ecx],eax
    3f4a:	01 01                	add    DWORD PTR [ecx],eax
    3f4c:	01 01                	add    DWORD PTR [ecx],eax
    3f4e:	01 01                	add    DWORD PTR [ecx],eax
    3f50:	01 01                	add    DWORD PTR [ecx],eax
    3f52:	01 01                	add    DWORD PTR [ecx],eax
    3f54:	01 01                	add    DWORD PTR [ecx],eax
    3f56:	01 01                	add    DWORD PTR [ecx],eax
    3f58:	01 01                	add    DWORD PTR [ecx],eax
    3f5a:	01 01                	add    DWORD PTR [ecx],eax
    3f5c:	01 01                	add    DWORD PTR [ecx],eax
    3f5e:	01 01                	add    DWORD PTR [ecx],eax
    3f60:	01 01                	add    DWORD PTR [ecx],eax
    3f62:	01 01                	add    DWORD PTR [ecx],eax
    3f64:	01 01                	add    DWORD PTR [ecx],eax
    3f66:	01 01                	add    DWORD PTR [ecx],eax
    3f68:	01 01                	add    DWORD PTR [ecx],eax
    3f6a:	01 01                	add    DWORD PTR [ecx],eax
    3f6c:	01 01                	add    DWORD PTR [ecx],eax
    3f6e:	01 01                	add    DWORD PTR [ecx],eax
    3f70:	01 01                	add    DWORD PTR [ecx],eax
    3f72:	01 01                	add    DWORD PTR [ecx],eax
    3f74:	01 01                	add    DWORD PTR [ecx],eax
    3f76:	01 01                	add    DWORD PTR [ecx],eax
    3f78:	01 01                	add    DWORD PTR [ecx],eax
    3f7a:	01 01                	add    DWORD PTR [ecx],eax
    3f7c:	01 01                	add    DWORD PTR [ecx],eax
    3f7e:	01 01                	add    DWORD PTR [ecx],eax
    3f80:	01 01                	add    DWORD PTR [ecx],eax
    3f82:	01 01                	add    DWORD PTR [ecx],eax
    3f84:	01 01                	add    DWORD PTR [ecx],eax
    3f86:	01 01                	add    DWORD PTR [ecx],eax
    3f88:	01 01                	add    DWORD PTR [ecx],eax
    3f8a:	01 01                	add    DWORD PTR [ecx],eax
    3f8c:	01 01                	add    DWORD PTR [ecx],eax
    3f8e:	01 01                	add    DWORD PTR [ecx],eax
    3f90:	01 01                	add    DWORD PTR [ecx],eax
    3f92:	01 01                	add    DWORD PTR [ecx],eax
    3f94:	01 01                	add    DWORD PTR [ecx],eax
    3f96:	01 01                	add    DWORD PTR [ecx],eax
    3f98:	01 01                	add    DWORD PTR [ecx],eax
    3f9a:	01 01                	add    DWORD PTR [ecx],eax
    3f9c:	01 01                	add    DWORD PTR [ecx],eax
    3f9e:	01 01                	add    DWORD PTR [ecx],eax
    3fa0:	01 01                	add    DWORD PTR [ecx],eax
    3fa2:	01 01                	add    DWORD PTR [ecx],eax
    3fa4:	01 01                	add    DWORD PTR [ecx],eax
    3fa6:	01 01                	add    DWORD PTR [ecx],eax
    3fa8:	01 01                	add    DWORD PTR [ecx],eax
    3faa:	01 01                	add    DWORD PTR [ecx],eax
    3fac:	01 01                	add    DWORD PTR [ecx],eax
    3fae:	01 01                	add    DWORD PTR [ecx],eax
    3fb0:	01 01                	add    DWORD PTR [ecx],eax
    3fb2:	01 01                	add    DWORD PTR [ecx],eax
    3fb4:	01 01                	add    DWORD PTR [ecx],eax
    3fb6:	01 01                	add    DWORD PTR [ecx],eax
    3fb8:	01 01                	add    DWORD PTR [ecx],eax
    3fba:	01 01                	add    DWORD PTR [ecx],eax
    3fbc:	01 01                	add    DWORD PTR [ecx],eax
    3fbe:	01 01                	add    DWORD PTR [ecx],eax
    3fc0:	01 01                	add    DWORD PTR [ecx],eax
    3fc2:	01 01                	add    DWORD PTR [ecx],eax
    3fc4:	01 01                	add    DWORD PTR [ecx],eax
    3fc6:	01 01                	add    DWORD PTR [ecx],eax
    3fc8:	01 01                	add    DWORD PTR [ecx],eax
    3fca:	01 01                	add    DWORD PTR [ecx],eax
    3fcc:	01 01                	add    DWORD PTR [ecx],eax
    3fce:	01 01                	add    DWORD PTR [ecx],eax
    3fd0:	01 01                	add    DWORD PTR [ecx],eax
    3fd2:	01 01                	add    DWORD PTR [ecx],eax
    3fd4:	01 01                	add    DWORD PTR [ecx],eax
    3fd6:	01 01                	add    DWORD PTR [ecx],eax
    3fd8:	01 01                	add    DWORD PTR [ecx],eax
    3fda:	01 01                	add    DWORD PTR [ecx],eax
    3fdc:	01 01                	add    DWORD PTR [ecx],eax
    3fde:	01 01                	add    DWORD PTR [ecx],eax
    3fe0:	01 01                	add    DWORD PTR [ecx],eax
    3fe2:	01 01                	add    DWORD PTR [ecx],eax
    3fe4:	01 01                	add    DWORD PTR [ecx],eax
    3fe6:	01 01                	add    DWORD PTR [ecx],eax
    3fe8:	01 01                	add    DWORD PTR [ecx],eax
    3fea:	01 01                	add    DWORD PTR [ecx],eax
    3fec:	01 01                	add    DWORD PTR [ecx],eax
    3fee:	01 01                	add    DWORD PTR [ecx],eax
    3ff0:	01 01                	add    DWORD PTR [ecx],eax
    3ff2:	01 01                	add    DWORD PTR [ecx],eax
    3ff4:	01 01                	add    DWORD PTR [ecx],eax
    3ff6:	01 01                	add    DWORD PTR [ecx],eax
    3ff8:	01 01                	add    DWORD PTR [ecx],eax
    3ffa:	01 01                	add    DWORD PTR [ecx],eax
    3ffc:	01 01                	add    DWORD PTR [ecx],eax
    3ffe:	01 01                	add    DWORD PTR [ecx],eax
    4000:	01 01                	add    DWORD PTR [ecx],eax
    4002:	01 01                	add    DWORD PTR [ecx],eax
    4004:	01 01                	add    DWORD PTR [ecx],eax
    4006:	01 01                	add    DWORD PTR [ecx],eax
    4008:	01 01                	add    DWORD PTR [ecx],eax
    400a:	01 01                	add    DWORD PTR [ecx],eax
    400c:	01 01                	add    DWORD PTR [ecx],eax
    400e:	01 01                	add    DWORD PTR [ecx],eax
    4010:	01 01                	add    DWORD PTR [ecx],eax
    4012:	01 01                	add    DWORD PTR [ecx],eax
    4014:	01 01                	add    DWORD PTR [ecx],eax
    4016:	01 01                	add    DWORD PTR [ecx],eax
    4018:	01 01                	add    DWORD PTR [ecx],eax
    401a:	01 01                	add    DWORD PTR [ecx],eax
    401c:	01 01                	add    DWORD PTR [ecx],eax
    401e:	01 01                	add    DWORD PTR [ecx],eax
    4020:	01 01                	add    DWORD PTR [ecx],eax
    4022:	01 01                	add    DWORD PTR [ecx],eax
    4024:	01 01                	add    DWORD PTR [ecx],eax
    4026:	01 01                	add    DWORD PTR [ecx],eax
    4028:	01 01                	add    DWORD PTR [ecx],eax
    402a:	01 01                	add    DWORD PTR [ecx],eax
    402c:	01 01                	add    DWORD PTR [ecx],eax
    402e:	01 01                	add    DWORD PTR [ecx],eax
    4030:	01 01                	add    DWORD PTR [ecx],eax
    4032:	01 01                	add    DWORD PTR [ecx],eax
    4034:	01 01                	add    DWORD PTR [ecx],eax
    4036:	01 01                	add    DWORD PTR [ecx],eax
    4038:	01 01                	add    DWORD PTR [ecx],eax
    403a:	01 01                	add    DWORD PTR [ecx],eax
    403c:	01 01                	add    DWORD PTR [ecx],eax
    403e:	01 01                	add    DWORD PTR [ecx],eax
    4040:	01 01                	add    DWORD PTR [ecx],eax
    4042:	01 01                	add    DWORD PTR [ecx],eax
    4044:	01 01                	add    DWORD PTR [ecx],eax
    4046:	01 01                	add    DWORD PTR [ecx],eax
    4048:	01 01                	add    DWORD PTR [ecx],eax
    404a:	01 01                	add    DWORD PTR [ecx],eax
    404c:	01 01                	add    DWORD PTR [ecx],eax
    404e:	01 01                	add    DWORD PTR [ecx],eax
    4050:	01 01                	add    DWORD PTR [ecx],eax
    4052:	01 01                	add    DWORD PTR [ecx],eax
    4054:	01 01                	add    DWORD PTR [ecx],eax
    4056:	01 01                	add    DWORD PTR [ecx],eax
    4058:	01 01                	add    DWORD PTR [ecx],eax
    405a:	01 01                	add    DWORD PTR [ecx],eax
    405c:	01 01                	add    DWORD PTR [ecx],eax
    405e:	01 01                	add    DWORD PTR [ecx],eax
    4060:	01 01                	add    DWORD PTR [ecx],eax
    4062:	01 01                	add    DWORD PTR [ecx],eax
    4064:	01 01                	add    DWORD PTR [ecx],eax
    4066:	01 01                	add    DWORD PTR [ecx],eax
    4068:	01 01                	add    DWORD PTR [ecx],eax
    406a:	01 01                	add    DWORD PTR [ecx],eax
    406c:	01 01                	add    DWORD PTR [ecx],eax
    406e:	01 01                	add    DWORD PTR [ecx],eax
    4070:	01 01                	add    DWORD PTR [ecx],eax
    4072:	01 01                	add    DWORD PTR [ecx],eax
    4074:	01 01                	add    DWORD PTR [ecx],eax
    4076:	01 01                	add    DWORD PTR [ecx],eax
    4078:	01 01                	add    DWORD PTR [ecx],eax
    407a:	01 01                	add    DWORD PTR [ecx],eax
    407c:	01 01                	add    DWORD PTR [ecx],eax
    407e:	01 01                	add    DWORD PTR [ecx],eax
    4080:	01 01                	add    DWORD PTR [ecx],eax
    4082:	01 01                	add    DWORD PTR [ecx],eax
    4084:	01 01                	add    DWORD PTR [ecx],eax
    4086:	01 01                	add    DWORD PTR [ecx],eax
    4088:	01 01                	add    DWORD PTR [ecx],eax
    408a:	01 01                	add    DWORD PTR [ecx],eax
    408c:	01 01                	add    DWORD PTR [ecx],eax
    408e:	01 01                	add    DWORD PTR [ecx],eax
    4090:	01 01                	add    DWORD PTR [ecx],eax
    4092:	01 01                	add    DWORD PTR [ecx],eax
    4094:	01 01                	add    DWORD PTR [ecx],eax
    4096:	01 01                	add    DWORD PTR [ecx],eax
    4098:	01 01                	add    DWORD PTR [ecx],eax
    409a:	01 01                	add    DWORD PTR [ecx],eax
    409c:	01 01                	add    DWORD PTR [ecx],eax
    409e:	01 01                	add    DWORD PTR [ecx],eax
    40a0:	01 01                	add    DWORD PTR [ecx],eax
    40a2:	01 01                	add    DWORD PTR [ecx],eax
    40a4:	01 01                	add    DWORD PTR [ecx],eax
    40a6:	01 01                	add    DWORD PTR [ecx],eax
    40a8:	01 01                	add    DWORD PTR [ecx],eax
    40aa:	01 01                	add    DWORD PTR [ecx],eax
    40ac:	01 01                	add    DWORD PTR [ecx],eax
    40ae:	01 01                	add    DWORD PTR [ecx],eax
    40b0:	01 01                	add    DWORD PTR [ecx],eax
    40b2:	01 01                	add    DWORD PTR [ecx],eax
    40b4:	01 01                	add    DWORD PTR [ecx],eax
    40b6:	01 01                	add    DWORD PTR [ecx],eax
    40b8:	01 01                	add    DWORD PTR [ecx],eax
    40ba:	01 01                	add    DWORD PTR [ecx],eax
    40bc:	01 01                	add    DWORD PTR [ecx],eax
    40be:	01 01                	add    DWORD PTR [ecx],eax
    40c0:	01 01                	add    DWORD PTR [ecx],eax
    40c2:	01 01                	add    DWORD PTR [ecx],eax
    40c4:	01 01                	add    DWORD PTR [ecx],eax
    40c6:	01 01                	add    DWORD PTR [ecx],eax
    40c8:	01 01                	add    DWORD PTR [ecx],eax
    40ca:	01 01                	add    DWORD PTR [ecx],eax
    40cc:	01 01                	add    DWORD PTR [ecx],eax
    40ce:	01 01                	add    DWORD PTR [ecx],eax
    40d0:	01 01                	add    DWORD PTR [ecx],eax
    40d2:	01 01                	add    DWORD PTR [ecx],eax
    40d4:	01 01                	add    DWORD PTR [ecx],eax
    40d6:	01 01                	add    DWORD PTR [ecx],eax
    40d8:	01 01                	add    DWORD PTR [ecx],eax
    40da:	01 01                	add    DWORD PTR [ecx],eax
    40dc:	01 01                	add    DWORD PTR [ecx],eax
    40de:	01 01                	add    DWORD PTR [ecx],eax
    40e0:	01 01                	add    DWORD PTR [ecx],eax
    40e2:	01 01                	add    DWORD PTR [ecx],eax
    40e4:	01 01                	add    DWORD PTR [ecx],eax
    40e6:	01 01                	add    DWORD PTR [ecx],eax
    40e8:	01 01                	add    DWORD PTR [ecx],eax
    40ea:	01 01                	add    DWORD PTR [ecx],eax
    40ec:	01 01                	add    DWORD PTR [ecx],eax
    40ee:	01 01                	add    DWORD PTR [ecx],eax
    40f0:	01 01                	add    DWORD PTR [ecx],eax
    40f2:	01 01                	add    DWORD PTR [ecx],eax
    40f4:	01 01                	add    DWORD PTR [ecx],eax
    40f6:	01 01                	add    DWORD PTR [ecx],eax
    40f8:	01 01                	add    DWORD PTR [ecx],eax
    40fa:	01 01                	add    DWORD PTR [ecx],eax
    40fc:	01 01                	add    DWORD PTR [ecx],eax
    40fe:	01 01                	add    DWORD PTR [ecx],eax
    4100:	01 01                	add    DWORD PTR [ecx],eax
    4102:	01 01                	add    DWORD PTR [ecx],eax
    4104:	01 01                	add    DWORD PTR [ecx],eax
    4106:	01 01                	add    DWORD PTR [ecx],eax
    4108:	01 01                	add    DWORD PTR [ecx],eax
    410a:	01 01                	add    DWORD PTR [ecx],eax
    410c:	01 01                	add    DWORD PTR [ecx],eax
    410e:	01 01                	add    DWORD PTR [ecx],eax
    4110:	01 01                	add    DWORD PTR [ecx],eax
    4112:	01 01                	add    DWORD PTR [ecx],eax
    4114:	01 01                	add    DWORD PTR [ecx],eax
    4116:	01 01                	add    DWORD PTR [ecx],eax
    4118:	01 01                	add    DWORD PTR [ecx],eax
    411a:	01 01                	add    DWORD PTR [ecx],eax
    411c:	01 01                	add    DWORD PTR [ecx],eax
    411e:	01 01                	add    DWORD PTR [ecx],eax
    4120:	01 01                	add    DWORD PTR [ecx],eax
    4122:	01 01                	add    DWORD PTR [ecx],eax
    4124:	01 01                	add    DWORD PTR [ecx],eax
    4126:	01 01                	add    DWORD PTR [ecx],eax
    4128:	01 01                	add    DWORD PTR [ecx],eax
    412a:	01 01                	add    DWORD PTR [ecx],eax
    412c:	01 01                	add    DWORD PTR [ecx],eax
    412e:	01 01                	add    DWORD PTR [ecx],eax
    4130:	01 01                	add    DWORD PTR [ecx],eax
    4132:	01 01                	add    DWORD PTR [ecx],eax
    4134:	01 01                	add    DWORD PTR [ecx],eax
    4136:	01 01                	add    DWORD PTR [ecx],eax
    4138:	01 01                	add    DWORD PTR [ecx],eax
    413a:	01 01                	add    DWORD PTR [ecx],eax
    413c:	01 01                	add    DWORD PTR [ecx],eax
    413e:	01 01                	add    DWORD PTR [ecx],eax
    4140:	01 01                	add    DWORD PTR [ecx],eax
    4142:	01 01                	add    DWORD PTR [ecx],eax
    4144:	01 01                	add    DWORD PTR [ecx],eax
    4146:	01 01                	add    DWORD PTR [ecx],eax
    4148:	01 01                	add    DWORD PTR [ecx],eax
    414a:	01 01                	add    DWORD PTR [ecx],eax
    414c:	01 01                	add    DWORD PTR [ecx],eax
    414e:	01 01                	add    DWORD PTR [ecx],eax
    4150:	01 01                	add    DWORD PTR [ecx],eax
    4152:	01 01                	add    DWORD PTR [ecx],eax
    4154:	01 01                	add    DWORD PTR [ecx],eax
    4156:	01 01                	add    DWORD PTR [ecx],eax
    4158:	01 01                	add    DWORD PTR [ecx],eax
    415a:	01 01                	add    DWORD PTR [ecx],eax
    415c:	01 01                	add    DWORD PTR [ecx],eax
    415e:	01 01                	add    DWORD PTR [ecx],eax
    4160:	01 01                	add    DWORD PTR [ecx],eax
    4162:	01 01                	add    DWORD PTR [ecx],eax
    4164:	01 01                	add    DWORD PTR [ecx],eax
    4166:	01 01                	add    DWORD PTR [ecx],eax
    4168:	01 01                	add    DWORD PTR [ecx],eax
    416a:	01 01                	add    DWORD PTR [ecx],eax
    416c:	01 01                	add    DWORD PTR [ecx],eax
    416e:	01 01                	add    DWORD PTR [ecx],eax
    4170:	01 01                	add    DWORD PTR [ecx],eax
    4172:	01 01                	add    DWORD PTR [ecx],eax
    4174:	01 01                	add    DWORD PTR [ecx],eax
    4176:	01 01                	add    DWORD PTR [ecx],eax
    4178:	01 01                	add    DWORD PTR [ecx],eax
    417a:	01 01                	add    DWORD PTR [ecx],eax
    417c:	01 01                	add    DWORD PTR [ecx],eax
    417e:	01 01                	add    DWORD PTR [ecx],eax
    4180:	01 01                	add    DWORD PTR [ecx],eax
    4182:	01 01                	add    DWORD PTR [ecx],eax
    4184:	01 01                	add    DWORD PTR [ecx],eax
    4186:	01 01                	add    DWORD PTR [ecx],eax
    4188:	01 01                	add    DWORD PTR [ecx],eax
    418a:	01 01                	add    DWORD PTR [ecx],eax
    418c:	01 01                	add    DWORD PTR [ecx],eax
    418e:	01 01                	add    DWORD PTR [ecx],eax
    4190:	01 01                	add    DWORD PTR [ecx],eax
    4192:	01 01                	add    DWORD PTR [ecx],eax
    4194:	01 01                	add    DWORD PTR [ecx],eax
    4196:	01 01                	add    DWORD PTR [ecx],eax
    4198:	01 01                	add    DWORD PTR [ecx],eax
    419a:	01 01                	add    DWORD PTR [ecx],eax
    419c:	01 01                	add    DWORD PTR [ecx],eax
    419e:	01 01                	add    DWORD PTR [ecx],eax
    41a0:	01 01                	add    DWORD PTR [ecx],eax
    41a2:	01 01                	add    DWORD PTR [ecx],eax
    41a4:	01 01                	add    DWORD PTR [ecx],eax
    41a6:	01 01                	add    DWORD PTR [ecx],eax
    41a8:	01 01                	add    DWORD PTR [ecx],eax
    41aa:	01 01                	add    DWORD PTR [ecx],eax
    41ac:	01 01                	add    DWORD PTR [ecx],eax
    41ae:	01 01                	add    DWORD PTR [ecx],eax
    41b0:	01 01                	add    DWORD PTR [ecx],eax
    41b2:	01 01                	add    DWORD PTR [ecx],eax
    41b4:	01 01                	add    DWORD PTR [ecx],eax
    41b6:	01 01                	add    DWORD PTR [ecx],eax
    41b8:	01 01                	add    DWORD PTR [ecx],eax
    41ba:	01 01                	add    DWORD PTR [ecx],eax
    41bc:	01 01                	add    DWORD PTR [ecx],eax
    41be:	01 01                	add    DWORD PTR [ecx],eax
    41c0:	01 01                	add    DWORD PTR [ecx],eax
    41c2:	01 01                	add    DWORD PTR [ecx],eax
    41c4:	01 01                	add    DWORD PTR [ecx],eax
    41c6:	01 01                	add    DWORD PTR [ecx],eax
    41c8:	01 01                	add    DWORD PTR [ecx],eax
    41ca:	01 01                	add    DWORD PTR [ecx],eax
    41cc:	01 01                	add    DWORD PTR [ecx],eax
    41ce:	01 01                	add    DWORD PTR [ecx],eax
    41d0:	01 01                	add    DWORD PTR [ecx],eax
    41d2:	01 01                	add    DWORD PTR [ecx],eax
    41d4:	01 01                	add    DWORD PTR [ecx],eax
    41d6:	01 01                	add    DWORD PTR [ecx],eax
    41d8:	01 01                	add    DWORD PTR [ecx],eax
    41da:	01 01                	add    DWORD PTR [ecx],eax
    41dc:	01 01                	add    DWORD PTR [ecx],eax
    41de:	01 01                	add    DWORD PTR [ecx],eax
    41e0:	01 01                	add    DWORD PTR [ecx],eax
    41e2:	01 01                	add    DWORD PTR [ecx],eax
    41e4:	01 01                	add    DWORD PTR [ecx],eax
    41e6:	01 01                	add    DWORD PTR [ecx],eax
    41e8:	01 01                	add    DWORD PTR [ecx],eax
    41ea:	01 01                	add    DWORD PTR [ecx],eax
    41ec:	01 01                	add    DWORD PTR [ecx],eax
    41ee:	01 01                	add    DWORD PTR [ecx],eax
    41f0:	01 01                	add    DWORD PTR [ecx],eax
    41f2:	01 01                	add    DWORD PTR [ecx],eax
    41f4:	01 01                	add    DWORD PTR [ecx],eax
    41f6:	01 01                	add    DWORD PTR [ecx],eax
    41f8:	01 01                	add    DWORD PTR [ecx],eax
    41fa:	01 01                	add    DWORD PTR [ecx],eax
    41fc:	01 01                	add    DWORD PTR [ecx],eax
    41fe:	01 01                	add    DWORD PTR [ecx],eax
    4200:	01 01                	add    DWORD PTR [ecx],eax
    4202:	01 01                	add    DWORD PTR [ecx],eax
    4204:	01 01                	add    DWORD PTR [ecx],eax
    4206:	01 01                	add    DWORD PTR [ecx],eax
    4208:	01 01                	add    DWORD PTR [ecx],eax
    420a:	01 01                	add    DWORD PTR [ecx],eax
    420c:	01 01                	add    DWORD PTR [ecx],eax
    420e:	01 01                	add    DWORD PTR [ecx],eax
    4210:	01 01                	add    DWORD PTR [ecx],eax
    4212:	01 01                	add    DWORD PTR [ecx],eax
    4214:	01 01                	add    DWORD PTR [ecx],eax
    4216:	01 01                	add    DWORD PTR [ecx],eax
    4218:	01 01                	add    DWORD PTR [ecx],eax
    421a:	01 01                	add    DWORD PTR [ecx],eax
    421c:	01 01                	add    DWORD PTR [ecx],eax
    421e:	01 01                	add    DWORD PTR [ecx],eax
    4220:	01 01                	add    DWORD PTR [ecx],eax
    4222:	01 01                	add    DWORD PTR [ecx],eax
    4224:	01 01                	add    DWORD PTR [ecx],eax
    4226:	01 01                	add    DWORD PTR [ecx],eax
    4228:	01 01                	add    DWORD PTR [ecx],eax
    422a:	01 01                	add    DWORD PTR [ecx],eax
    422c:	01 01                	add    DWORD PTR [ecx],eax
    422e:	01 01                	add    DWORD PTR [ecx],eax
    4230:	01 01                	add    DWORD PTR [ecx],eax
    4232:	01 01                	add    DWORD PTR [ecx],eax
    4234:	01 01                	add    DWORD PTR [ecx],eax
    4236:	01 01                	add    DWORD PTR [ecx],eax
    4238:	01 01                	add    DWORD PTR [ecx],eax
    423a:	01 01                	add    DWORD PTR [ecx],eax
    423c:	01 01                	add    DWORD PTR [ecx],eax
    423e:	01 01                	add    DWORD PTR [ecx],eax
    4240:	01 01                	add    DWORD PTR [ecx],eax
    4242:	01 01                	add    DWORD PTR [ecx],eax
    4244:	01 01                	add    DWORD PTR [ecx],eax
    4246:	01 01                	add    DWORD PTR [ecx],eax
    4248:	01 01                	add    DWORD PTR [ecx],eax
    424a:	01 01                	add    DWORD PTR [ecx],eax
    424c:	01 01                	add    DWORD PTR [ecx],eax
    424e:	01 01                	add    DWORD PTR [ecx],eax
    4250:	01 01                	add    DWORD PTR [ecx],eax
    4252:	01 01                	add    DWORD PTR [ecx],eax
    4254:	01 01                	add    DWORD PTR [ecx],eax
    4256:	01 01                	add    DWORD PTR [ecx],eax
    4258:	01 01                	add    DWORD PTR [ecx],eax
    425a:	01 01                	add    DWORD PTR [ecx],eax
    425c:	01 01                	add    DWORD PTR [ecx],eax
    425e:	01 01                	add    DWORD PTR [ecx],eax
    4260:	01 01                	add    DWORD PTR [ecx],eax
    4262:	01 01                	add    DWORD PTR [ecx],eax
    4264:	01 01                	add    DWORD PTR [ecx],eax
    4266:	01 01                	add    DWORD PTR [ecx],eax
    4268:	01 01                	add    DWORD PTR [ecx],eax
    426a:	01 01                	add    DWORD PTR [ecx],eax
    426c:	01 01                	add    DWORD PTR [ecx],eax
    426e:	01 01                	add    DWORD PTR [ecx],eax
    4270:	01 01                	add    DWORD PTR [ecx],eax
    4272:	01 01                	add    DWORD PTR [ecx],eax
    4274:	01 01                	add    DWORD PTR [ecx],eax
    4276:	01 01                	add    DWORD PTR [ecx],eax
    4278:	01 01                	add    DWORD PTR [ecx],eax
    427a:	01 01                	add    DWORD PTR [ecx],eax
    427c:	01 01                	add    DWORD PTR [ecx],eax
    427e:	01 01                	add    DWORD PTR [ecx],eax
    4280:	01 01                	add    DWORD PTR [ecx],eax
    4282:	01 01                	add    DWORD PTR [ecx],eax
    4284:	01 01                	add    DWORD PTR [ecx],eax
    4286:	01 01                	add    DWORD PTR [ecx],eax
    4288:	01 01                	add    DWORD PTR [ecx],eax
    428a:	01 01                	add    DWORD PTR [ecx],eax
    428c:	01 01                	add    DWORD PTR [ecx],eax
    428e:	01 01                	add    DWORD PTR [ecx],eax
    4290:	01 01                	add    DWORD PTR [ecx],eax
    4292:	01 01                	add    DWORD PTR [ecx],eax
    4294:	01 01                	add    DWORD PTR [ecx],eax
    4296:	01 01                	add    DWORD PTR [ecx],eax
    4298:	01 01                	add    DWORD PTR [ecx],eax
    429a:	01 01                	add    DWORD PTR [ecx],eax
    429c:	01 01                	add    DWORD PTR [ecx],eax
    429e:	01 01                	add    DWORD PTR [ecx],eax
    42a0:	01 01                	add    DWORD PTR [ecx],eax
    42a2:	01 01                	add    DWORD PTR [ecx],eax
    42a4:	01 01                	add    DWORD PTR [ecx],eax
    42a6:	01 01                	add    DWORD PTR [ecx],eax
    42a8:	01 01                	add    DWORD PTR [ecx],eax
    42aa:	01 01                	add    DWORD PTR [ecx],eax
    42ac:	01 01                	add    DWORD PTR [ecx],eax
    42ae:	01 01                	add    DWORD PTR [ecx],eax
    42b0:	01 01                	add    DWORD PTR [ecx],eax
    42b2:	01 01                	add    DWORD PTR [ecx],eax
    42b4:	01 01                	add    DWORD PTR [ecx],eax
    42b6:	01 01                	add    DWORD PTR [ecx],eax
    42b8:	01 01                	add    DWORD PTR [ecx],eax
    42ba:	01 01                	add    DWORD PTR [ecx],eax
    42bc:	01 01                	add    DWORD PTR [ecx],eax
    42be:	01 01                	add    DWORD PTR [ecx],eax
    42c0:	01 01                	add    DWORD PTR [ecx],eax
    42c2:	01 01                	add    DWORD PTR [ecx],eax
    42c4:	01 01                	add    DWORD PTR [ecx],eax
    42c6:	01 01                	add    DWORD PTR [ecx],eax
    42c8:	01 01                	add    DWORD PTR [ecx],eax
    42ca:	01 01                	add    DWORD PTR [ecx],eax
    42cc:	01 01                	add    DWORD PTR [ecx],eax
    42ce:	01 01                	add    DWORD PTR [ecx],eax
    42d0:	01 01                	add    DWORD PTR [ecx],eax
    42d2:	01 01                	add    DWORD PTR [ecx],eax
    42d4:	01 01                	add    DWORD PTR [ecx],eax
    42d6:	01 01                	add    DWORD PTR [ecx],eax
    42d8:	01 01                	add    DWORD PTR [ecx],eax
    42da:	01 01                	add    DWORD PTR [ecx],eax
    42dc:	01 01                	add    DWORD PTR [ecx],eax
    42de:	01 01                	add    DWORD PTR [ecx],eax
    42e0:	01 01                	add    DWORD PTR [ecx],eax
    42e2:	01 01                	add    DWORD PTR [ecx],eax
    42e4:	01 01                	add    DWORD PTR [ecx],eax
    42e6:	01 01                	add    DWORD PTR [ecx],eax
    42e8:	01 01                	add    DWORD PTR [ecx],eax
    42ea:	01 01                	add    DWORD PTR [ecx],eax
    42ec:	01 01                	add    DWORD PTR [ecx],eax
    42ee:	01 01                	add    DWORD PTR [ecx],eax
    42f0:	01 01                	add    DWORD PTR [ecx],eax
    42f2:	01 01                	add    DWORD PTR [ecx],eax
    42f4:	01 01                	add    DWORD PTR [ecx],eax
    42f6:	01 01                	add    DWORD PTR [ecx],eax
    42f8:	01 01                	add    DWORD PTR [ecx],eax
    42fa:	01 01                	add    DWORD PTR [ecx],eax
    42fc:	01 01                	add    DWORD PTR [ecx],eax
    42fe:	01 01                	add    DWORD PTR [ecx],eax
    4300:	01 01                	add    DWORD PTR [ecx],eax
    4302:	01 01                	add    DWORD PTR [ecx],eax
    4304:	01 01                	add    DWORD PTR [ecx],eax
    4306:	01 01                	add    DWORD PTR [ecx],eax
    4308:	01 01                	add    DWORD PTR [ecx],eax
    430a:	01 01                	add    DWORD PTR [ecx],eax
    430c:	01 01                	add    DWORD PTR [ecx],eax
    430e:	01 01                	add    DWORD PTR [ecx],eax
    4310:	01 01                	add    DWORD PTR [ecx],eax
    4312:	01 01                	add    DWORD PTR [ecx],eax
    4314:	01 01                	add    DWORD PTR [ecx],eax
    4316:	01 01                	add    DWORD PTR [ecx],eax
    4318:	01 01                	add    DWORD PTR [ecx],eax
    431a:	01 01                	add    DWORD PTR [ecx],eax
    431c:	01 01                	add    DWORD PTR [ecx],eax
    431e:	01 01                	add    DWORD PTR [ecx],eax
    4320:	01 01                	add    DWORD PTR [ecx],eax
    4322:	01 01                	add    DWORD PTR [ecx],eax
    4324:	01 01                	add    DWORD PTR [ecx],eax
    4326:	01 01                	add    DWORD PTR [ecx],eax
    4328:	01 01                	add    DWORD PTR [ecx],eax
    432a:	01 01                	add    DWORD PTR [ecx],eax
    432c:	01 01                	add    DWORD PTR [ecx],eax
    432e:	01 01                	add    DWORD PTR [ecx],eax
    4330:	01 01                	add    DWORD PTR [ecx],eax
    4332:	01 01                	add    DWORD PTR [ecx],eax
    4334:	01 01                	add    DWORD PTR [ecx],eax
    4336:	01 01                	add    DWORD PTR [ecx],eax
    4338:	01 01                	add    DWORD PTR [ecx],eax
    433a:	01 01                	add    DWORD PTR [ecx],eax
    433c:	01 01                	add    DWORD PTR [ecx],eax
    433e:	01 01                	add    DWORD PTR [ecx],eax
    4340:	01 01                	add    DWORD PTR [ecx],eax
    4342:	01 01                	add    DWORD PTR [ecx],eax
    4344:	01 01                	add    DWORD PTR [ecx],eax
    4346:	01 01                	add    DWORD PTR [ecx],eax
    4348:	01 01                	add    DWORD PTR [ecx],eax
    434a:	01 01                	add    DWORD PTR [ecx],eax
    434c:	01 01                	add    DWORD PTR [ecx],eax
    434e:	01 01                	add    DWORD PTR [ecx],eax
    4350:	01 01                	add    DWORD PTR [ecx],eax
    4352:	01 01                	add    DWORD PTR [ecx],eax
    4354:	01 01                	add    DWORD PTR [ecx],eax
    4356:	01 01                	add    DWORD PTR [ecx],eax
    4358:	01 01                	add    DWORD PTR [ecx],eax
    435a:	01 01                	add    DWORD PTR [ecx],eax
    435c:	01 01                	add    DWORD PTR [ecx],eax
    435e:	01 01                	add    DWORD PTR [ecx],eax
    4360:	01 01                	add    DWORD PTR [ecx],eax
    4362:	01 01                	add    DWORD PTR [ecx],eax
    4364:	01 01                	add    DWORD PTR [ecx],eax
    4366:	01 01                	add    DWORD PTR [ecx],eax
    4368:	01 01                	add    DWORD PTR [ecx],eax
    436a:	01 01                	add    DWORD PTR [ecx],eax
    436c:	01 01                	add    DWORD PTR [ecx],eax
    436e:	01 01                	add    DWORD PTR [ecx],eax
    4370:	01 01                	add    DWORD PTR [ecx],eax
    4372:	01 01                	add    DWORD PTR [ecx],eax
    4374:	01 01                	add    DWORD PTR [ecx],eax
    4376:	01 01                	add    DWORD PTR [ecx],eax
    4378:	01 01                	add    DWORD PTR [ecx],eax
    437a:	01 01                	add    DWORD PTR [ecx],eax
    437c:	01 01                	add    DWORD PTR [ecx],eax
    437e:	01 01                	add    DWORD PTR [ecx],eax
    4380:	01 01                	add    DWORD PTR [ecx],eax
    4382:	01 01                	add    DWORD PTR [ecx],eax
    4384:	01 01                	add    DWORD PTR [ecx],eax
    4386:	01 01                	add    DWORD PTR [ecx],eax
    4388:	01 01                	add    DWORD PTR [ecx],eax
    438a:	01 01                	add    DWORD PTR [ecx],eax
    438c:	01 01                	add    DWORD PTR [ecx],eax
    438e:	01 01                	add    DWORD PTR [ecx],eax
    4390:	01 01                	add    DWORD PTR [ecx],eax
    4392:	01 01                	add    DWORD PTR [ecx],eax
    4394:	01 01                	add    DWORD PTR [ecx],eax
    4396:	01 01                	add    DWORD PTR [ecx],eax
    4398:	01 01                	add    DWORD PTR [ecx],eax
    439a:	01 01                	add    DWORD PTR [ecx],eax
    439c:	01 01                	add    DWORD PTR [ecx],eax
    439e:	01 01                	add    DWORD PTR [ecx],eax
    43a0:	01 01                	add    DWORD PTR [ecx],eax
    43a2:	01 01                	add    DWORD PTR [ecx],eax
    43a4:	01 01                	add    DWORD PTR [ecx],eax
    43a6:	01 01                	add    DWORD PTR [ecx],eax
    43a8:	01 01                	add    DWORD PTR [ecx],eax
    43aa:	01 01                	add    DWORD PTR [ecx],eax
    43ac:	01 01                	add    DWORD PTR [ecx],eax
    43ae:	01 01                	add    DWORD PTR [ecx],eax
    43b0:	01 01                	add    DWORD PTR [ecx],eax
    43b2:	01 01                	add    DWORD PTR [ecx],eax
    43b4:	01 01                	add    DWORD PTR [ecx],eax
    43b6:	01 01                	add    DWORD PTR [ecx],eax
    43b8:	01 01                	add    DWORD PTR [ecx],eax
    43ba:	01 01                	add    DWORD PTR [ecx],eax
    43bc:	01 01                	add    DWORD PTR [ecx],eax
    43be:	01 01                	add    DWORD PTR [ecx],eax
    43c0:	01 01                	add    DWORD PTR [ecx],eax
    43c2:	01 01                	add    DWORD PTR [ecx],eax
    43c4:	01 01                	add    DWORD PTR [ecx],eax
    43c6:	01 01                	add    DWORD PTR [ecx],eax
    43c8:	01 01                	add    DWORD PTR [ecx],eax
    43ca:	01 01                	add    DWORD PTR [ecx],eax
    43cc:	01 01                	add    DWORD PTR [ecx],eax
    43ce:	01 01                	add    DWORD PTR [ecx],eax
    43d0:	01 01                	add    DWORD PTR [ecx],eax
    43d2:	01 01                	add    DWORD PTR [ecx],eax
    43d4:	01 01                	add    DWORD PTR [ecx],eax
    43d6:	01 01                	add    DWORD PTR [ecx],eax
    43d8:	01 01                	add    DWORD PTR [ecx],eax
    43da:	01 01                	add    DWORD PTR [ecx],eax
    43dc:	01 01                	add    DWORD PTR [ecx],eax
    43de:	01 01                	add    DWORD PTR [ecx],eax
    43e0:	01 01                	add    DWORD PTR [ecx],eax
    43e2:	01 01                	add    DWORD PTR [ecx],eax
    43e4:	01 01                	add    DWORD PTR [ecx],eax
    43e6:	01 01                	add    DWORD PTR [ecx],eax
    43e8:	01 01                	add    DWORD PTR [ecx],eax
    43ea:	01 01                	add    DWORD PTR [ecx],eax
    43ec:	01 01                	add    DWORD PTR [ecx],eax
    43ee:	01 01                	add    DWORD PTR [ecx],eax
    43f0:	01 01                	add    DWORD PTR [ecx],eax
    43f2:	01 01                	add    DWORD PTR [ecx],eax
    43f4:	01 01                	add    DWORD PTR [ecx],eax
    43f6:	01 01                	add    DWORD PTR [ecx],eax
    43f8:	01 01                	add    DWORD PTR [ecx],eax
    43fa:	01 01                	add    DWORD PTR [ecx],eax
    43fc:	01 01                	add    DWORD PTR [ecx],eax
    43fe:	01 01                	add    DWORD PTR [ecx],eax
    4400:	01 01                	add    DWORD PTR [ecx],eax
    4402:	01 01                	add    DWORD PTR [ecx],eax
    4404:	01 01                	add    DWORD PTR [ecx],eax
    4406:	01 01                	add    DWORD PTR [ecx],eax
    4408:	01 01                	add    DWORD PTR [ecx],eax
    440a:	01 01                	add    DWORD PTR [ecx],eax
    440c:	01 01                	add    DWORD PTR [ecx],eax
    440e:	01 01                	add    DWORD PTR [ecx],eax
    4410:	01 01                	add    DWORD PTR [ecx],eax
    4412:	01 01                	add    DWORD PTR [ecx],eax
    4414:	01 01                	add    DWORD PTR [ecx],eax
    4416:	01 01                	add    DWORD PTR [ecx],eax
    4418:	01 01                	add    DWORD PTR [ecx],eax
    441a:	01 01                	add    DWORD PTR [ecx],eax
    441c:	01 01                	add    DWORD PTR [ecx],eax
    441e:	01 01                	add    DWORD PTR [ecx],eax
    4420:	01 01                	add    DWORD PTR [ecx],eax
    4422:	01 01                	add    DWORD PTR [ecx],eax
    4424:	01 01                	add    DWORD PTR [ecx],eax
    4426:	01 01                	add    DWORD PTR [ecx],eax
    4428:	01 01                	add    DWORD PTR [ecx],eax
    442a:	01 01                	add    DWORD PTR [ecx],eax
    442c:	01 01                	add    DWORD PTR [ecx],eax
    442e:	01 01                	add    DWORD PTR [ecx],eax
    4430:	01 01                	add    DWORD PTR [ecx],eax
    4432:	01 01                	add    DWORD PTR [ecx],eax
    4434:	01 01                	add    DWORD PTR [ecx],eax
    4436:	01 01                	add    DWORD PTR [ecx],eax
    4438:	01 01                	add    DWORD PTR [ecx],eax
    443a:	01 01                	add    DWORD PTR [ecx],eax
    443c:	01 01                	add    DWORD PTR [ecx],eax
    443e:	01 01                	add    DWORD PTR [ecx],eax
    4440:	01 01                	add    DWORD PTR [ecx],eax
    4442:	01 01                	add    DWORD PTR [ecx],eax
    4444:	01 01                	add    DWORD PTR [ecx],eax
    4446:	01 01                	add    DWORD PTR [ecx],eax
    4448:	01 01                	add    DWORD PTR [ecx],eax
    444a:	01 01                	add    DWORD PTR [ecx],eax
    444c:	01 01                	add    DWORD PTR [ecx],eax
    444e:	01 01                	add    DWORD PTR [ecx],eax
    4450:	01 01                	add    DWORD PTR [ecx],eax
    4452:	01 01                	add    DWORD PTR [ecx],eax
    4454:	01 01                	add    DWORD PTR [ecx],eax
    4456:	01 01                	add    DWORD PTR [ecx],eax
    4458:	01 01                	add    DWORD PTR [ecx],eax
    445a:	01 01                	add    DWORD PTR [ecx],eax
    445c:	01 01                	add    DWORD PTR [ecx],eax
    445e:	01 01                	add    DWORD PTR [ecx],eax
    4460:	01 01                	add    DWORD PTR [ecx],eax
    4462:	01 01                	add    DWORD PTR [ecx],eax
    4464:	01 01                	add    DWORD PTR [ecx],eax
    4466:	01 01                	add    DWORD PTR [ecx],eax
    4468:	01 01                	add    DWORD PTR [ecx],eax
    446a:	01 01                	add    DWORD PTR [ecx],eax
    446c:	01 01                	add    DWORD PTR [ecx],eax
    446e:	01 01                	add    DWORD PTR [ecx],eax
    4470:	01 01                	add    DWORD PTR [ecx],eax
    4472:	01 01                	add    DWORD PTR [ecx],eax
    4474:	01 01                	add    DWORD PTR [ecx],eax
    4476:	01 01                	add    DWORD PTR [ecx],eax
    4478:	01 01                	add    DWORD PTR [ecx],eax
    447a:	01 01                	add    DWORD PTR [ecx],eax
    447c:	01 01                	add    DWORD PTR [ecx],eax
    447e:	01 01                	add    DWORD PTR [ecx],eax
    4480:	01 01                	add    DWORD PTR [ecx],eax
    4482:	01 01                	add    DWORD PTR [ecx],eax
    4484:	01 01                	add    DWORD PTR [ecx],eax
    4486:	01 01                	add    DWORD PTR [ecx],eax
    4488:	01 01                	add    DWORD PTR [ecx],eax
    448a:	01 01                	add    DWORD PTR [ecx],eax
    448c:	01 01                	add    DWORD PTR [ecx],eax
    448e:	01 01                	add    DWORD PTR [ecx],eax
    4490:	01 01                	add    DWORD PTR [ecx],eax
    4492:	01 01                	add    DWORD PTR [ecx],eax
    4494:	01 01                	add    DWORD PTR [ecx],eax
    4496:	01 01                	add    DWORD PTR [ecx],eax
    4498:	01 01                	add    DWORD PTR [ecx],eax
    449a:	01 01                	add    DWORD PTR [ecx],eax
    449c:	01 01                	add    DWORD PTR [ecx],eax
    449e:	01 01                	add    DWORD PTR [ecx],eax
    44a0:	01 01                	add    DWORD PTR [ecx],eax
    44a2:	01 01                	add    DWORD PTR [ecx],eax
    44a4:	01 01                	add    DWORD PTR [ecx],eax
    44a6:	01 01                	add    DWORD PTR [ecx],eax
    44a8:	01 01                	add    DWORD PTR [ecx],eax
    44aa:	01 01                	add    DWORD PTR [ecx],eax
    44ac:	01 01                	add    DWORD PTR [ecx],eax
    44ae:	01 01                	add    DWORD PTR [ecx],eax
    44b0:	01 01                	add    DWORD PTR [ecx],eax
    44b2:	01 01                	add    DWORD PTR [ecx],eax
    44b4:	01 01                	add    DWORD PTR [ecx],eax
    44b6:	01 01                	add    DWORD PTR [ecx],eax
    44b8:	01 01                	add    DWORD PTR [ecx],eax
    44ba:	01 01                	add    DWORD PTR [ecx],eax
    44bc:	01 01                	add    DWORD PTR [ecx],eax
    44be:	01 01                	add    DWORD PTR [ecx],eax
    44c0:	01 01                	add    DWORD PTR [ecx],eax
    44c2:	01 01                	add    DWORD PTR [ecx],eax
    44c4:	01 01                	add    DWORD PTR [ecx],eax
    44c6:	01 01                	add    DWORD PTR [ecx],eax
    44c8:	01 01                	add    DWORD PTR [ecx],eax
    44ca:	01 01                	add    DWORD PTR [ecx],eax
    44cc:	01 01                	add    DWORD PTR [ecx],eax
    44ce:	01 01                	add    DWORD PTR [ecx],eax
    44d0:	01 01                	add    DWORD PTR [ecx],eax
    44d2:	01 01                	add    DWORD PTR [ecx],eax
    44d4:	01 01                	add    DWORD PTR [ecx],eax
    44d6:	01 01                	add    DWORD PTR [ecx],eax
    44d8:	01 01                	add    DWORD PTR [ecx],eax
    44da:	01 01                	add    DWORD PTR [ecx],eax
    44dc:	01 01                	add    DWORD PTR [ecx],eax
    44de:	01 01                	add    DWORD PTR [ecx],eax
    44e0:	01 01                	add    DWORD PTR [ecx],eax
    44e2:	01 01                	add    DWORD PTR [ecx],eax
    44e4:	01 01                	add    DWORD PTR [ecx],eax
    44e6:	01 01                	add    DWORD PTR [ecx],eax
    44e8:	01 01                	add    DWORD PTR [ecx],eax
    44ea:	01 01                	add    DWORD PTR [ecx],eax
    44ec:	01 01                	add    DWORD PTR [ecx],eax
    44ee:	01 01                	add    DWORD PTR [ecx],eax
    44f0:	01 01                	add    DWORD PTR [ecx],eax
    44f2:	01 01                	add    DWORD PTR [ecx],eax
    44f4:	01 01                	add    DWORD PTR [ecx],eax
    44f6:	01 01                	add    DWORD PTR [ecx],eax
    44f8:	01 01                	add    DWORD PTR [ecx],eax
    44fa:	01 01                	add    DWORD PTR [ecx],eax
    44fc:	01 01                	add    DWORD PTR [ecx],eax
    44fe:	01 01                	add    DWORD PTR [ecx],eax
    4500:	01 01                	add    DWORD PTR [ecx],eax
    4502:	01 01                	add    DWORD PTR [ecx],eax
    4504:	01 01                	add    DWORD PTR [ecx],eax
    4506:	01 01                	add    DWORD PTR [ecx],eax
    4508:	01 01                	add    DWORD PTR [ecx],eax
    450a:	01 01                	add    DWORD PTR [ecx],eax
    450c:	01 01                	add    DWORD PTR [ecx],eax
    450e:	01 01                	add    DWORD PTR [ecx],eax
    4510:	01 01                	add    DWORD PTR [ecx],eax
    4512:	01 01                	add    DWORD PTR [ecx],eax
    4514:	01 01                	add    DWORD PTR [ecx],eax
    4516:	01 01                	add    DWORD PTR [ecx],eax
    4518:	01 01                	add    DWORD PTR [ecx],eax
    451a:	01 01                	add    DWORD PTR [ecx],eax
    451c:	01 01                	add    DWORD PTR [ecx],eax
    451e:	01 01                	add    DWORD PTR [ecx],eax
    4520:	01 01                	add    DWORD PTR [ecx],eax
    4522:	01 01                	add    DWORD PTR [ecx],eax
    4524:	01 01                	add    DWORD PTR [ecx],eax
    4526:	01 01                	add    DWORD PTR [ecx],eax
    4528:	01 01                	add    DWORD PTR [ecx],eax
    452a:	01 01                	add    DWORD PTR [ecx],eax
    452c:	01 01                	add    DWORD PTR [ecx],eax
    452e:	01 01                	add    DWORD PTR [ecx],eax
    4530:	01 01                	add    DWORD PTR [ecx],eax
    4532:	01 01                	add    DWORD PTR [ecx],eax
    4534:	01 01                	add    DWORD PTR [ecx],eax
    4536:	01 01                	add    DWORD PTR [ecx],eax
    4538:	01 01                	add    DWORD PTR [ecx],eax
    453a:	01 01                	add    DWORD PTR [ecx],eax
    453c:	01 01                	add    DWORD PTR [ecx],eax
    453e:	01 01                	add    DWORD PTR [ecx],eax
    4540:	01 01                	add    DWORD PTR [ecx],eax
    4542:	01 01                	add    DWORD PTR [ecx],eax
    4544:	01 01                	add    DWORD PTR [ecx],eax
    4546:	01 01                	add    DWORD PTR [ecx],eax
    4548:	01 01                	add    DWORD PTR [ecx],eax
    454a:	01 01                	add    DWORD PTR [ecx],eax
    454c:	01 01                	add    DWORD PTR [ecx],eax
    454e:	01 01                	add    DWORD PTR [ecx],eax
    4550:	01 01                	add    DWORD PTR [ecx],eax
    4552:	01 01                	add    DWORD PTR [ecx],eax
    4554:	01 01                	add    DWORD PTR [ecx],eax
    4556:	01 01                	add    DWORD PTR [ecx],eax
    4558:	01 01                	add    DWORD PTR [ecx],eax
    455a:	01 01                	add    DWORD PTR [ecx],eax
    455c:	01 01                	add    DWORD PTR [ecx],eax
    455e:	01 01                	add    DWORD PTR [ecx],eax
    4560:	01 01                	add    DWORD PTR [ecx],eax
    4562:	01 01                	add    DWORD PTR [ecx],eax
    4564:	01 01                	add    DWORD PTR [ecx],eax
    4566:	01 01                	add    DWORD PTR [ecx],eax
    4568:	01 01                	add    DWORD PTR [ecx],eax
    456a:	01 01                	add    DWORD PTR [ecx],eax
    456c:	01 01                	add    DWORD PTR [ecx],eax
    456e:	01 01                	add    DWORD PTR [ecx],eax
    4570:	01 01                	add    DWORD PTR [ecx],eax
    4572:	01 01                	add    DWORD PTR [ecx],eax
    4574:	01 01                	add    DWORD PTR [ecx],eax
    4576:	01 01                	add    DWORD PTR [ecx],eax
    4578:	01 01                	add    DWORD PTR [ecx],eax
    457a:	01 01                	add    DWORD PTR [ecx],eax
    457c:	01 01                	add    DWORD PTR [ecx],eax
    457e:	01 01                	add    DWORD PTR [ecx],eax
    4580:	01 01                	add    DWORD PTR [ecx],eax
    4582:	01 01                	add    DWORD PTR [ecx],eax
    4584:	01 01                	add    DWORD PTR [ecx],eax
    4586:	01 01                	add    DWORD PTR [ecx],eax
    4588:	01 01                	add    DWORD PTR [ecx],eax
    458a:	01 01                	add    DWORD PTR [ecx],eax
    458c:	01 01                	add    DWORD PTR [ecx],eax
    458e:	01 01                	add    DWORD PTR [ecx],eax
    4590:	01 01                	add    DWORD PTR [ecx],eax
    4592:	01 01                	add    DWORD PTR [ecx],eax
    4594:	01 01                	add    DWORD PTR [ecx],eax
    4596:	01 01                	add    DWORD PTR [ecx],eax
    4598:	01 01                	add    DWORD PTR [ecx],eax
    459a:	01 01                	add    DWORD PTR [ecx],eax
    459c:	01 01                	add    DWORD PTR [ecx],eax
    459e:	01 01                	add    DWORD PTR [ecx],eax
    45a0:	01 01                	add    DWORD PTR [ecx],eax
    45a2:	01 01                	add    DWORD PTR [ecx],eax
    45a4:	01 01                	add    DWORD PTR [ecx],eax
    45a6:	01 01                	add    DWORD PTR [ecx],eax
    45a8:	01 01                	add    DWORD PTR [ecx],eax
    45aa:	01 01                	add    DWORD PTR [ecx],eax
    45ac:	01 01                	add    DWORD PTR [ecx],eax
    45ae:	01 01                	add    DWORD PTR [ecx],eax
    45b0:	01 01                	add    DWORD PTR [ecx],eax
    45b2:	01 01                	add    DWORD PTR [ecx],eax
    45b4:	01 01                	add    DWORD PTR [ecx],eax
    45b6:	01 01                	add    DWORD PTR [ecx],eax
    45b8:	01 01                	add    DWORD PTR [ecx],eax
    45ba:	01 01                	add    DWORD PTR [ecx],eax
    45bc:	01 01                	add    DWORD PTR [ecx],eax
    45be:	01 01                	add    DWORD PTR [ecx],eax
    45c0:	01 01                	add    DWORD PTR [ecx],eax
    45c2:	01 01                	add    DWORD PTR [ecx],eax
    45c4:	01 01                	add    DWORD PTR [ecx],eax
    45c6:	01 01                	add    DWORD PTR [ecx],eax
    45c8:	01 01                	add    DWORD PTR [ecx],eax
    45ca:	01 01                	add    DWORD PTR [ecx],eax
    45cc:	01 01                	add    DWORD PTR [ecx],eax
    45ce:	01 01                	add    DWORD PTR [ecx],eax
    45d0:	01 01                	add    DWORD PTR [ecx],eax
    45d2:	01 01                	add    DWORD PTR [ecx],eax
    45d4:	01 01                	add    DWORD PTR [ecx],eax
    45d6:	01 01                	add    DWORD PTR [ecx],eax
    45d8:	01 01                	add    DWORD PTR [ecx],eax
    45da:	01 01                	add    DWORD PTR [ecx],eax
    45dc:	01 01                	add    DWORD PTR [ecx],eax
    45de:	01 01                	add    DWORD PTR [ecx],eax
    45e0:	01 01                	add    DWORD PTR [ecx],eax
    45e2:	01 01                	add    DWORD PTR [ecx],eax
    45e4:	01 01                	add    DWORD PTR [ecx],eax
    45e6:	01 01                	add    DWORD PTR [ecx],eax
    45e8:	01 01                	add    DWORD PTR [ecx],eax
    45ea:	01 01                	add    DWORD PTR [ecx],eax
    45ec:	01 01                	add    DWORD PTR [ecx],eax
    45ee:	01 01                	add    DWORD PTR [ecx],eax
    45f0:	01 01                	add    DWORD PTR [ecx],eax
    45f2:	01 01                	add    DWORD PTR [ecx],eax
    45f4:	01 01                	add    DWORD PTR [ecx],eax
    45f6:	01 01                	add    DWORD PTR [ecx],eax
    45f8:	01 01                	add    DWORD PTR [ecx],eax
    45fa:	01 01                	add    DWORD PTR [ecx],eax
    45fc:	01 01                	add    DWORD PTR [ecx],eax
    45fe:	01 01                	add    DWORD PTR [ecx],eax
    4600:	01 01                	add    DWORD PTR [ecx],eax
    4602:	01 01                	add    DWORD PTR [ecx],eax
    4604:	01 01                	add    DWORD PTR [ecx],eax
    4606:	01 01                	add    DWORD PTR [ecx],eax
    4608:	01 01                	add    DWORD PTR [ecx],eax
    460a:	01 01                	add    DWORD PTR [ecx],eax
    460c:	01 01                	add    DWORD PTR [ecx],eax
    460e:	01 01                	add    DWORD PTR [ecx],eax
    4610:	01 01                	add    DWORD PTR [ecx],eax
    4612:	01 01                	add    DWORD PTR [ecx],eax
    4614:	01 01                	add    DWORD PTR [ecx],eax
    4616:	01 01                	add    DWORD PTR [ecx],eax
    4618:	01 01                	add    DWORD PTR [ecx],eax
    461a:	01 01                	add    DWORD PTR [ecx],eax
    461c:	01 01                	add    DWORD PTR [ecx],eax
    461e:	01 01                	add    DWORD PTR [ecx],eax
    4620:	01 01                	add    DWORD PTR [ecx],eax
    4622:	01 01                	add    DWORD PTR [ecx],eax
    4624:	01 01                	add    DWORD PTR [ecx],eax
    4626:	01 01                	add    DWORD PTR [ecx],eax
    4628:	01 01                	add    DWORD PTR [ecx],eax
    462a:	01 01                	add    DWORD PTR [ecx],eax
    462c:	01 01                	add    DWORD PTR [ecx],eax
    462e:	01 01                	add    DWORD PTR [ecx],eax
    4630:	01 01                	add    DWORD PTR [ecx],eax
    4632:	01 01                	add    DWORD PTR [ecx],eax
    4634:	01 01                	add    DWORD PTR [ecx],eax
    4636:	01 01                	add    DWORD PTR [ecx],eax
    4638:	01 01                	add    DWORD PTR [ecx],eax
    463a:	01 01                	add    DWORD PTR [ecx],eax
    463c:	01 01                	add    DWORD PTR [ecx],eax
    463e:	01 01                	add    DWORD PTR [ecx],eax
    4640:	01 01                	add    DWORD PTR [ecx],eax
    4642:	01 01                	add    DWORD PTR [ecx],eax
    4644:	01 01                	add    DWORD PTR [ecx],eax
    4646:	01 01                	add    DWORD PTR [ecx],eax
    4648:	01 01                	add    DWORD PTR [ecx],eax
    464a:	01 01                	add    DWORD PTR [ecx],eax
    464c:	01 01                	add    DWORD PTR [ecx],eax
    464e:	01 01                	add    DWORD PTR [ecx],eax
    4650:	01 01                	add    DWORD PTR [ecx],eax
    4652:	01 01                	add    DWORD PTR [ecx],eax
    4654:	01 01                	add    DWORD PTR [ecx],eax
    4656:	01 01                	add    DWORD PTR [ecx],eax
    4658:	01 01                	add    DWORD PTR [ecx],eax
    465a:	01 01                	add    DWORD PTR [ecx],eax
    465c:	01 01                	add    DWORD PTR [ecx],eax
    465e:	01 01                	add    DWORD PTR [ecx],eax
    4660:	01 01                	add    DWORD PTR [ecx],eax
    4662:	01 01                	add    DWORD PTR [ecx],eax
    4664:	01 01                	add    DWORD PTR [ecx],eax
    4666:	01 01                	add    DWORD PTR [ecx],eax
    4668:	01 01                	add    DWORD PTR [ecx],eax
    466a:	01 01                	add    DWORD PTR [ecx],eax
    466c:	01 01                	add    DWORD PTR [ecx],eax
    466e:	01 01                	add    DWORD PTR [ecx],eax
    4670:	01 01                	add    DWORD PTR [ecx],eax
    4672:	01 01                	add    DWORD PTR [ecx],eax
    4674:	01 01                	add    DWORD PTR [ecx],eax
    4676:	01 01                	add    DWORD PTR [ecx],eax
    4678:	01 01                	add    DWORD PTR [ecx],eax
    467a:	01 01                	add    DWORD PTR [ecx],eax
    467c:	01 01                	add    DWORD PTR [ecx],eax
    467e:	01 01                	add    DWORD PTR [ecx],eax
    4680:	01 01                	add    DWORD PTR [ecx],eax
    4682:	01 01                	add    DWORD PTR [ecx],eax
    4684:	01 01                	add    DWORD PTR [ecx],eax
    4686:	01 01                	add    DWORD PTR [ecx],eax
    4688:	01 01                	add    DWORD PTR [ecx],eax
    468a:	01 01                	add    DWORD PTR [ecx],eax
    468c:	01 01                	add    DWORD PTR [ecx],eax
    468e:	01 01                	add    DWORD PTR [ecx],eax
    4690:	01 01                	add    DWORD PTR [ecx],eax
    4692:	01 01                	add    DWORD PTR [ecx],eax
    4694:	01 01                	add    DWORD PTR [ecx],eax
    4696:	01 01                	add    DWORD PTR [ecx],eax
    4698:	01 01                	add    DWORD PTR [ecx],eax
    469a:	01 01                	add    DWORD PTR [ecx],eax
    469c:	01 01                	add    DWORD PTR [ecx],eax
    469e:	01 01                	add    DWORD PTR [ecx],eax
    46a0:	01 01                	add    DWORD PTR [ecx],eax
    46a2:	01 01                	add    DWORD PTR [ecx],eax
    46a4:	01 01                	add    DWORD PTR [ecx],eax
    46a6:	01 01                	add    DWORD PTR [ecx],eax
    46a8:	01 01                	add    DWORD PTR [ecx],eax
    46aa:	01 01                	add    DWORD PTR [ecx],eax
    46ac:	01 01                	add    DWORD PTR [ecx],eax
    46ae:	01 01                	add    DWORD PTR [ecx],eax
    46b0:	01 01                	add    DWORD PTR [ecx],eax
    46b2:	01 01                	add    DWORD PTR [ecx],eax
    46b4:	01 01                	add    DWORD PTR [ecx],eax
    46b6:	01 01                	add    DWORD PTR [ecx],eax
    46b8:	01 01                	add    DWORD PTR [ecx],eax
    46ba:	01 01                	add    DWORD PTR [ecx],eax
    46bc:	01 01                	add    DWORD PTR [ecx],eax
    46be:	01 01                	add    DWORD PTR [ecx],eax
    46c0:	01 01                	add    DWORD PTR [ecx],eax
    46c2:	01 01                	add    DWORD PTR [ecx],eax
    46c4:	01 01                	add    DWORD PTR [ecx],eax
    46c6:	01 01                	add    DWORD PTR [ecx],eax
    46c8:	01 01                	add    DWORD PTR [ecx],eax
    46ca:	01 01                	add    DWORD PTR [ecx],eax
    46cc:	01 01                	add    DWORD PTR [ecx],eax
    46ce:	01 01                	add    DWORD PTR [ecx],eax
    46d0:	01 01                	add    DWORD PTR [ecx],eax
    46d2:	01 01                	add    DWORD PTR [ecx],eax
    46d4:	01 01                	add    DWORD PTR [ecx],eax
    46d6:	01 01                	add    DWORD PTR [ecx],eax
    46d8:	01 01                	add    DWORD PTR [ecx],eax
    46da:	01 01                	add    DWORD PTR [ecx],eax
    46dc:	01 01                	add    DWORD PTR [ecx],eax
    46de:	01 01                	add    DWORD PTR [ecx],eax
    46e0:	01 01                	add    DWORD PTR [ecx],eax
    46e2:	01 01                	add    DWORD PTR [ecx],eax
    46e4:	01 01                	add    DWORD PTR [ecx],eax
    46e6:	01 01                	add    DWORD PTR [ecx],eax
    46e8:	01 01                	add    DWORD PTR [ecx],eax
    46ea:	01 01                	add    DWORD PTR [ecx],eax
    46ec:	01 01                	add    DWORD PTR [ecx],eax
    46ee:	01 01                	add    DWORD PTR [ecx],eax
    46f0:	01 01                	add    DWORD PTR [ecx],eax
    46f2:	01 01                	add    DWORD PTR [ecx],eax
    46f4:	01 01                	add    DWORD PTR [ecx],eax
    46f6:	01 01                	add    DWORD PTR [ecx],eax
    46f8:	01 01                	add    DWORD PTR [ecx],eax
    46fa:	01 01                	add    DWORD PTR [ecx],eax
    46fc:	01 01                	add    DWORD PTR [ecx],eax
    46fe:	01 01                	add    DWORD PTR [ecx],eax
    4700:	01 01                	add    DWORD PTR [ecx],eax
    4702:	01 01                	add    DWORD PTR [ecx],eax
    4704:	01 01                	add    DWORD PTR [ecx],eax
    4706:	01 01                	add    DWORD PTR [ecx],eax
    4708:	01 01                	add    DWORD PTR [ecx],eax
    470a:	01 01                	add    DWORD PTR [ecx],eax
    470c:	01 01                	add    DWORD PTR [ecx],eax
    470e:	01 01                	add    DWORD PTR [ecx],eax
    4710:	01 01                	add    DWORD PTR [ecx],eax
    4712:	01 01                	add    DWORD PTR [ecx],eax
    4714:	01 01                	add    DWORD PTR [ecx],eax
    4716:	01 01                	add    DWORD PTR [ecx],eax
    4718:	01 01                	add    DWORD PTR [ecx],eax
    471a:	01 01                	add    DWORD PTR [ecx],eax
    471c:	01 01                	add    DWORD PTR [ecx],eax
    471e:	01 01                	add    DWORD PTR [ecx],eax
    4720:	01 01                	add    DWORD PTR [ecx],eax
    4722:	01 01                	add    DWORD PTR [ecx],eax
    4724:	01 01                	add    DWORD PTR [ecx],eax
    4726:	01 01                	add    DWORD PTR [ecx],eax
    4728:	01 01                	add    DWORD PTR [ecx],eax
    472a:	01 01                	add    DWORD PTR [ecx],eax
    472c:	01 01                	add    DWORD PTR [ecx],eax
    472e:	01 01                	add    DWORD PTR [ecx],eax
    4730:	01 01                	add    DWORD PTR [ecx],eax
    4732:	01 01                	add    DWORD PTR [ecx],eax
    4734:	01 01                	add    DWORD PTR [ecx],eax
    4736:	01 01                	add    DWORD PTR [ecx],eax
    4738:	01 01                	add    DWORD PTR [ecx],eax
    473a:	01 01                	add    DWORD PTR [ecx],eax
    473c:	01 01                	add    DWORD PTR [ecx],eax
    473e:	01 01                	add    DWORD PTR [ecx],eax
    4740:	01 01                	add    DWORD PTR [ecx],eax
    4742:	01 01                	add    DWORD PTR [ecx],eax
    4744:	01 01                	add    DWORD PTR [ecx],eax
    4746:	01 01                	add    DWORD PTR [ecx],eax
    4748:	01 01                	add    DWORD PTR [ecx],eax
    474a:	01 01                	add    DWORD PTR [ecx],eax
    474c:	01 01                	add    DWORD PTR [ecx],eax
    474e:	01 01                	add    DWORD PTR [ecx],eax
    4750:	01 01                	add    DWORD PTR [ecx],eax
    4752:	01 01                	add    DWORD PTR [ecx],eax
    4754:	01 01                	add    DWORD PTR [ecx],eax
    4756:	01 01                	add    DWORD PTR [ecx],eax
    4758:	01 01                	add    DWORD PTR [ecx],eax
    475a:	01 01                	add    DWORD PTR [ecx],eax
    475c:	01 01                	add    DWORD PTR [ecx],eax
    475e:	01 01                	add    DWORD PTR [ecx],eax
    4760:	01 01                	add    DWORD PTR [ecx],eax
    4762:	01 01                	add    DWORD PTR [ecx],eax
    4764:	01 01                	add    DWORD PTR [ecx],eax
    4766:	01 01                	add    DWORD PTR [ecx],eax
    4768:	01 01                	add    DWORD PTR [ecx],eax
    476a:	01 01                	add    DWORD PTR [ecx],eax
    476c:	01 01                	add    DWORD PTR [ecx],eax
    476e:	01 01                	add    DWORD PTR [ecx],eax
    4770:	01 01                	add    DWORD PTR [ecx],eax
    4772:	01 01                	add    DWORD PTR [ecx],eax
    4774:	01 01                	add    DWORD PTR [ecx],eax
    4776:	01 01                	add    DWORD PTR [ecx],eax
    4778:	01 01                	add    DWORD PTR [ecx],eax
    477a:	01 01                	add    DWORD PTR [ecx],eax
    477c:	01 01                	add    DWORD PTR [ecx],eax
    477e:	01 01                	add    DWORD PTR [ecx],eax
    4780:	01 01                	add    DWORD PTR [ecx],eax
    4782:	01 01                	add    DWORD PTR [ecx],eax
    4784:	01 01                	add    DWORD PTR [ecx],eax
    4786:	01 01                	add    DWORD PTR [ecx],eax
    4788:	01 01                	add    DWORD PTR [ecx],eax
    478a:	01 01                	add    DWORD PTR [ecx],eax
    478c:	01 01                	add    DWORD PTR [ecx],eax
    478e:	01 01                	add    DWORD PTR [ecx],eax
    4790:	01 01                	add    DWORD PTR [ecx],eax
    4792:	01 01                	add    DWORD PTR [ecx],eax
    4794:	01 01                	add    DWORD PTR [ecx],eax
    4796:	01 01                	add    DWORD PTR [ecx],eax
    4798:	01 01                	add    DWORD PTR [ecx],eax
    479a:	01 01                	add    DWORD PTR [ecx],eax
    479c:	01 01                	add    DWORD PTR [ecx],eax
    479e:	01 01                	add    DWORD PTR [ecx],eax
    47a0:	01 01                	add    DWORD PTR [ecx],eax
    47a2:	01 01                	add    DWORD PTR [ecx],eax
    47a4:	01 01                	add    DWORD PTR [ecx],eax
    47a6:	01 01                	add    DWORD PTR [ecx],eax
    47a8:	01 01                	add    DWORD PTR [ecx],eax
    47aa:	01 01                	add    DWORD PTR [ecx],eax
    47ac:	01 01                	add    DWORD PTR [ecx],eax
    47ae:	01 01                	add    DWORD PTR [ecx],eax
    47b0:	01 01                	add    DWORD PTR [ecx],eax
    47b2:	01 01                	add    DWORD PTR [ecx],eax
    47b4:	01 01                	add    DWORD PTR [ecx],eax
    47b6:	01 01                	add    DWORD PTR [ecx],eax
    47b8:	01 01                	add    DWORD PTR [ecx],eax
    47ba:	01 01                	add    DWORD PTR [ecx],eax
    47bc:	01 01                	add    DWORD PTR [ecx],eax
    47be:	01 01                	add    DWORD PTR [ecx],eax
    47c0:	01 01                	add    DWORD PTR [ecx],eax
    47c2:	01 01                	add    DWORD PTR [ecx],eax
    47c4:	01 01                	add    DWORD PTR [ecx],eax
    47c6:	01 01                	add    DWORD PTR [ecx],eax
    47c8:	01 01                	add    DWORD PTR [ecx],eax
    47ca:	01 01                	add    DWORD PTR [ecx],eax
    47cc:	01 01                	add    DWORD PTR [ecx],eax
    47ce:	01 01                	add    DWORD PTR [ecx],eax
    47d0:	01 01                	add    DWORD PTR [ecx],eax
    47d2:	01 01                	add    DWORD PTR [ecx],eax
    47d4:	01 01                	add    DWORD PTR [ecx],eax
    47d6:	01 01                	add    DWORD PTR [ecx],eax
    47d8:	01 01                	add    DWORD PTR [ecx],eax
    47da:	01 01                	add    DWORD PTR [ecx],eax
    47dc:	01 01                	add    DWORD PTR [ecx],eax
    47de:	01 01                	add    DWORD PTR [ecx],eax
    47e0:	01 01                	add    DWORD PTR [ecx],eax
    47e2:	01 01                	add    DWORD PTR [ecx],eax
    47e4:	01 01                	add    DWORD PTR [ecx],eax
    47e6:	01 01                	add    DWORD PTR [ecx],eax
    47e8:	01 01                	add    DWORD PTR [ecx],eax
    47ea:	01 01                	add    DWORD PTR [ecx],eax
    47ec:	01 01                	add    DWORD PTR [ecx],eax
    47ee:	01 01                	add    DWORD PTR [ecx],eax
    47f0:	01 01                	add    DWORD PTR [ecx],eax
    47f2:	01 01                	add    DWORD PTR [ecx],eax
    47f4:	01 01                	add    DWORD PTR [ecx],eax
    47f6:	01 01                	add    DWORD PTR [ecx],eax
    47f8:	01 01                	add    DWORD PTR [ecx],eax
    47fa:	01 01                	add    DWORD PTR [ecx],eax
    47fc:	01 01                	add    DWORD PTR [ecx],eax
    47fe:	01 01                	add    DWORD PTR [ecx],eax
    4800:	01 01                	add    DWORD PTR [ecx],eax
    4802:	01 01                	add    DWORD PTR [ecx],eax
    4804:	01 01                	add    DWORD PTR [ecx],eax
    4806:	01 01                	add    DWORD PTR [ecx],eax
    4808:	01 01                	add    DWORD PTR [ecx],eax
    480a:	01 01                	add    DWORD PTR [ecx],eax
    480c:	01 01                	add    DWORD PTR [ecx],eax
    480e:	01 01                	add    DWORD PTR [ecx],eax
    4810:	01 01                	add    DWORD PTR [ecx],eax
    4812:	01 01                	add    DWORD PTR [ecx],eax
    4814:	01 01                	add    DWORD PTR [ecx],eax
    4816:	01 01                	add    DWORD PTR [ecx],eax
    4818:	01 01                	add    DWORD PTR [ecx],eax
    481a:	01 01                	add    DWORD PTR [ecx],eax
    481c:	01 01                	add    DWORD PTR [ecx],eax
    481e:	01 01                	add    DWORD PTR [ecx],eax
    4820:	01 01                	add    DWORD PTR [ecx],eax
    4822:	01 01                	add    DWORD PTR [ecx],eax
    4824:	01 01                	add    DWORD PTR [ecx],eax
    4826:	01 01                	add    DWORD PTR [ecx],eax
    4828:	01 01                	add    DWORD PTR [ecx],eax
    482a:	01 01                	add    DWORD PTR [ecx],eax
    482c:	01 01                	add    DWORD PTR [ecx],eax
    482e:	01 01                	add    DWORD PTR [ecx],eax
    4830:	01 01                	add    DWORD PTR [ecx],eax
    4832:	01 01                	add    DWORD PTR [ecx],eax
    4834:	01 01                	add    DWORD PTR [ecx],eax
    4836:	01 01                	add    DWORD PTR [ecx],eax
    4838:	01 01                	add    DWORD PTR [ecx],eax
    483a:	01 01                	add    DWORD PTR [ecx],eax
    483c:	01 01                	add    DWORD PTR [ecx],eax
    483e:	01 01                	add    DWORD PTR [ecx],eax
    4840:	01 01                	add    DWORD PTR [ecx],eax
    4842:	01 01                	add    DWORD PTR [ecx],eax
    4844:	01 01                	add    DWORD PTR [ecx],eax
    4846:	01 01                	add    DWORD PTR [ecx],eax
    4848:	01 01                	add    DWORD PTR [ecx],eax
    484a:	01 01                	add    DWORD PTR [ecx],eax
    484c:	01 01                	add    DWORD PTR [ecx],eax
    484e:	01 01                	add    DWORD PTR [ecx],eax
    4850:	01 01                	add    DWORD PTR [ecx],eax
    4852:	01 01                	add    DWORD PTR [ecx],eax
    4854:	01 01                	add    DWORD PTR [ecx],eax
    4856:	01 01                	add    DWORD PTR [ecx],eax
    4858:	01 01                	add    DWORD PTR [ecx],eax
    485a:	01 01                	add    DWORD PTR [ecx],eax
    485c:	01 01                	add    DWORD PTR [ecx],eax
    485e:	01 01                	add    DWORD PTR [ecx],eax
    4860:	01 01                	add    DWORD PTR [ecx],eax
    4862:	01 01                	add    DWORD PTR [ecx],eax
    4864:	01 01                	add    DWORD PTR [ecx],eax
    4866:	01 01                	add    DWORD PTR [ecx],eax
    4868:	01 01                	add    DWORD PTR [ecx],eax
    486a:	01 01                	add    DWORD PTR [ecx],eax
    486c:	01 01                	add    DWORD PTR [ecx],eax
    486e:	01 01                	add    DWORD PTR [ecx],eax
    4870:	01 01                	add    DWORD PTR [ecx],eax
    4872:	01 01                	add    DWORD PTR [ecx],eax
    4874:	01 01                	add    DWORD PTR [ecx],eax
    4876:	01 01                	add    DWORD PTR [ecx],eax
    4878:	01 01                	add    DWORD PTR [ecx],eax
    487a:	01 01                	add    DWORD PTR [ecx],eax
    487c:	01 01                	add    DWORD PTR [ecx],eax
    487e:	01 01                	add    DWORD PTR [ecx],eax
    4880:	01 01                	add    DWORD PTR [ecx],eax
    4882:	01 01                	add    DWORD PTR [ecx],eax
    4884:	01 01                	add    DWORD PTR [ecx],eax
    4886:	01 01                	add    DWORD PTR [ecx],eax
    4888:	01 01                	add    DWORD PTR [ecx],eax
    488a:	01 01                	add    DWORD PTR [ecx],eax
    488c:	01 01                	add    DWORD PTR [ecx],eax
    488e:	01 01                	add    DWORD PTR [ecx],eax
    4890:	01 01                	add    DWORD PTR [ecx],eax
    4892:	01 01                	add    DWORD PTR [ecx],eax
    4894:	01 01                	add    DWORD PTR [ecx],eax
    4896:	01 01                	add    DWORD PTR [ecx],eax
    4898:	01 01                	add    DWORD PTR [ecx],eax
    489a:	01 01                	add    DWORD PTR [ecx],eax
    489c:	01 01                	add    DWORD PTR [ecx],eax
    489e:	01 01                	add    DWORD PTR [ecx],eax
    48a0:	01 01                	add    DWORD PTR [ecx],eax
    48a2:	01 01                	add    DWORD PTR [ecx],eax
    48a4:	01 01                	add    DWORD PTR [ecx],eax
    48a6:	01 01                	add    DWORD PTR [ecx],eax
    48a8:	01 01                	add    DWORD PTR [ecx],eax
    48aa:	01 01                	add    DWORD PTR [ecx],eax
    48ac:	01 01                	add    DWORD PTR [ecx],eax
    48ae:	01 01                	add    DWORD PTR [ecx],eax
    48b0:	01 01                	add    DWORD PTR [ecx],eax
    48b2:	01 01                	add    DWORD PTR [ecx],eax
    48b4:	01 01                	add    DWORD PTR [ecx],eax
    48b6:	01 01                	add    DWORD PTR [ecx],eax
    48b8:	01 01                	add    DWORD PTR [ecx],eax
    48ba:	01 01                	add    DWORD PTR [ecx],eax
    48bc:	01 01                	add    DWORD PTR [ecx],eax
    48be:	01 01                	add    DWORD PTR [ecx],eax
    48c0:	01 01                	add    DWORD PTR [ecx],eax
    48c2:	01 01                	add    DWORD PTR [ecx],eax
    48c4:	01 01                	add    DWORD PTR [ecx],eax
    48c6:	01 01                	add    DWORD PTR [ecx],eax
    48c8:	01 01                	add    DWORD PTR [ecx],eax
    48ca:	01 01                	add    DWORD PTR [ecx],eax
    48cc:	01 01                	add    DWORD PTR [ecx],eax
    48ce:	01 01                	add    DWORD PTR [ecx],eax
    48d0:	01 01                	add    DWORD PTR [ecx],eax
    48d2:	01 01                	add    DWORD PTR [ecx],eax
    48d4:	01 01                	add    DWORD PTR [ecx],eax
    48d6:	01 01                	add    DWORD PTR [ecx],eax
    48d8:	01 01                	add    DWORD PTR [ecx],eax
    48da:	01 01                	add    DWORD PTR [ecx],eax
    48dc:	01 01                	add    DWORD PTR [ecx],eax
    48de:	01 01                	add    DWORD PTR [ecx],eax
    48e0:	01 01                	add    DWORD PTR [ecx],eax
    48e2:	01 01                	add    DWORD PTR [ecx],eax
    48e4:	01 01                	add    DWORD PTR [ecx],eax
    48e6:	01 01                	add    DWORD PTR [ecx],eax
    48e8:	01 01                	add    DWORD PTR [ecx],eax
    48ea:	01 01                	add    DWORD PTR [ecx],eax
    48ec:	01 01                	add    DWORD PTR [ecx],eax
    48ee:	01 01                	add    DWORD PTR [ecx],eax
    48f0:	01 01                	add    DWORD PTR [ecx],eax
    48f2:	01 01                	add    DWORD PTR [ecx],eax
    48f4:	01 01                	add    DWORD PTR [ecx],eax
    48f6:	01 01                	add    DWORD PTR [ecx],eax
    48f8:	01 01                	add    DWORD PTR [ecx],eax
    48fa:	01 01                	add    DWORD PTR [ecx],eax
    48fc:	01 01                	add    DWORD PTR [ecx],eax
    48fe:	01 01                	add    DWORD PTR [ecx],eax
    4900:	01 01                	add    DWORD PTR [ecx],eax
    4902:	01 01                	add    DWORD PTR [ecx],eax
    4904:	01 01                	add    DWORD PTR [ecx],eax
    4906:	01 01                	add    DWORD PTR [ecx],eax
    4908:	01 01                	add    DWORD PTR [ecx],eax
    490a:	01 01                	add    DWORD PTR [ecx],eax
    490c:	01 01                	add    DWORD PTR [ecx],eax
    490e:	01 01                	add    DWORD PTR [ecx],eax
    4910:	01 01                	add    DWORD PTR [ecx],eax
    4912:	01 01                	add    DWORD PTR [ecx],eax
    4914:	01 01                	add    DWORD PTR [ecx],eax
    4916:	01 01                	add    DWORD PTR [ecx],eax
    4918:	01 01                	add    DWORD PTR [ecx],eax
    491a:	01 01                	add    DWORD PTR [ecx],eax
    491c:	01 01                	add    DWORD PTR [ecx],eax
    491e:	01 01                	add    DWORD PTR [ecx],eax
    4920:	01 01                	add    DWORD PTR [ecx],eax
    4922:	01 01                	add    DWORD PTR [ecx],eax
    4924:	01 01                	add    DWORD PTR [ecx],eax
    4926:	01 01                	add    DWORD PTR [ecx],eax
    4928:	01 01                	add    DWORD PTR [ecx],eax
    492a:	01 01                	add    DWORD PTR [ecx],eax
    492c:	01 01                	add    DWORD PTR [ecx],eax
    492e:	01 01                	add    DWORD PTR [ecx],eax
    4930:	01 01                	add    DWORD PTR [ecx],eax
    4932:	01 01                	add    DWORD PTR [ecx],eax
    4934:	01 01                	add    DWORD PTR [ecx],eax
    4936:	01 01                	add    DWORD PTR [ecx],eax
    4938:	01 01                	add    DWORD PTR [ecx],eax
    493a:	01 01                	add    DWORD PTR [ecx],eax
    493c:	01 01                	add    DWORD PTR [ecx],eax
    493e:	01 01                	add    DWORD PTR [ecx],eax
    4940:	01 01                	add    DWORD PTR [ecx],eax
    4942:	01 01                	add    DWORD PTR [ecx],eax
    4944:	01 01                	add    DWORD PTR [ecx],eax
    4946:	01 01                	add    DWORD PTR [ecx],eax
    4948:	01 01                	add    DWORD PTR [ecx],eax
    494a:	01 01                	add    DWORD PTR [ecx],eax
    494c:	01 01                	add    DWORD PTR [ecx],eax
    494e:	01 01                	add    DWORD PTR [ecx],eax
    4950:	01 01                	add    DWORD PTR [ecx],eax
    4952:	01 01                	add    DWORD PTR [ecx],eax
    4954:	01 01                	add    DWORD PTR [ecx],eax
    4956:	01 01                	add    DWORD PTR [ecx],eax
    4958:	01 01                	add    DWORD PTR [ecx],eax
    495a:	01 01                	add    DWORD PTR [ecx],eax
    495c:	01 01                	add    DWORD PTR [ecx],eax
    495e:	01 01                	add    DWORD PTR [ecx],eax
    4960:	01 01                	add    DWORD PTR [ecx],eax
    4962:	01 01                	add    DWORD PTR [ecx],eax
    4964:	01 01                	add    DWORD PTR [ecx],eax
    4966:	01 01                	add    DWORD PTR [ecx],eax
    4968:	01 01                	add    DWORD PTR [ecx],eax
    496a:	01 01                	add    DWORD PTR [ecx],eax
    496c:	01 01                	add    DWORD PTR [ecx],eax
    496e:	01 01                	add    DWORD PTR [ecx],eax
    4970:	01 01                	add    DWORD PTR [ecx],eax
    4972:	01 01                	add    DWORD PTR [ecx],eax
    4974:	01 01                	add    DWORD PTR [ecx],eax
    4976:	01 01                	add    DWORD PTR [ecx],eax
    4978:	01 01                	add    DWORD PTR [ecx],eax
    497a:	01 01                	add    DWORD PTR [ecx],eax
    497c:	01 01                	add    DWORD PTR [ecx],eax
    497e:	01 01                	add    DWORD PTR [ecx],eax
    4980:	01 01                	add    DWORD PTR [ecx],eax
    4982:	01 01                	add    DWORD PTR [ecx],eax
    4984:	01 01                	add    DWORD PTR [ecx],eax
    4986:	01 01                	add    DWORD PTR [ecx],eax
    4988:	01 01                	add    DWORD PTR [ecx],eax
    498a:	01 01                	add    DWORD PTR [ecx],eax
    498c:	01 01                	add    DWORD PTR [ecx],eax
    498e:	01 01                	add    DWORD PTR [ecx],eax
    4990:	01 01                	add    DWORD PTR [ecx],eax
    4992:	01 01                	add    DWORD PTR [ecx],eax
    4994:	01 01                	add    DWORD PTR [ecx],eax
    4996:	01 01                	add    DWORD PTR [ecx],eax
    4998:	01 01                	add    DWORD PTR [ecx],eax
    499a:	01 01                	add    DWORD PTR [ecx],eax
    499c:	01 01                	add    DWORD PTR [ecx],eax
    499e:	01 01                	add    DWORD PTR [ecx],eax
    49a0:	01 01                	add    DWORD PTR [ecx],eax
    49a2:	01 01                	add    DWORD PTR [ecx],eax
    49a4:	01 01                	add    DWORD PTR [ecx],eax
    49a6:	01 01                	add    DWORD PTR [ecx],eax
    49a8:	01 01                	add    DWORD PTR [ecx],eax
    49aa:	01 01                	add    DWORD PTR [ecx],eax
    49ac:	01 01                	add    DWORD PTR [ecx],eax
    49ae:	01 01                	add    DWORD PTR [ecx],eax
    49b0:	01 01                	add    DWORD PTR [ecx],eax
    49b2:	01 01                	add    DWORD PTR [ecx],eax
    49b4:	01 01                	add    DWORD PTR [ecx],eax
    49b6:	01 01                	add    DWORD PTR [ecx],eax
    49b8:	01 01                	add    DWORD PTR [ecx],eax
    49ba:	01 01                	add    DWORD PTR [ecx],eax
    49bc:	01 01                	add    DWORD PTR [ecx],eax
    49be:	01 01                	add    DWORD PTR [ecx],eax
    49c0:	01 01                	add    DWORD PTR [ecx],eax
    49c2:	01 01                	add    DWORD PTR [ecx],eax
    49c4:	01 01                	add    DWORD PTR [ecx],eax
    49c6:	01 01                	add    DWORD PTR [ecx],eax
    49c8:	01 01                	add    DWORD PTR [ecx],eax
    49ca:	01 01                	add    DWORD PTR [ecx],eax
    49cc:	01 01                	add    DWORD PTR [ecx],eax
    49ce:	01 01                	add    DWORD PTR [ecx],eax
    49d0:	01 01                	add    DWORD PTR [ecx],eax
    49d2:	01 01                	add    DWORD PTR [ecx],eax
    49d4:	01 01                	add    DWORD PTR [ecx],eax
    49d6:	01 01                	add    DWORD PTR [ecx],eax
    49d8:	01 01                	add    DWORD PTR [ecx],eax
    49da:	01 01                	add    DWORD PTR [ecx],eax
    49dc:	01 01                	add    DWORD PTR [ecx],eax
    49de:	01 01                	add    DWORD PTR [ecx],eax
    49e0:	01 01                	add    DWORD PTR [ecx],eax
    49e2:	01 01                	add    DWORD PTR [ecx],eax
    49e4:	01 01                	add    DWORD PTR [ecx],eax
    49e6:	01 01                	add    DWORD PTR [ecx],eax
    49e8:	01 01                	add    DWORD PTR [ecx],eax
    49ea:	01 01                	add    DWORD PTR [ecx],eax
    49ec:	01 01                	add    DWORD PTR [ecx],eax
    49ee:	01 01                	add    DWORD PTR [ecx],eax
    49f0:	01 01                	add    DWORD PTR [ecx],eax
    49f2:	01 01                	add    DWORD PTR [ecx],eax
    49f4:	01 01                	add    DWORD PTR [ecx],eax
    49f6:	01 01                	add    DWORD PTR [ecx],eax
    49f8:	01 01                	add    DWORD PTR [ecx],eax
    49fa:	01 01                	add    DWORD PTR [ecx],eax
    49fc:	01 01                	add    DWORD PTR [ecx],eax
    49fe:	01 01                	add    DWORD PTR [ecx],eax
    4a00:	01 01                	add    DWORD PTR [ecx],eax
    4a02:	01 01                	add    DWORD PTR [ecx],eax
    4a04:	01 01                	add    DWORD PTR [ecx],eax
    4a06:	01 01                	add    DWORD PTR [ecx],eax
    4a08:	01 01                	add    DWORD PTR [ecx],eax
    4a0a:	01 01                	add    DWORD PTR [ecx],eax
    4a0c:	01 01                	add    DWORD PTR [ecx],eax
    4a0e:	01 01                	add    DWORD PTR [ecx],eax
    4a10:	01 01                	add    DWORD PTR [ecx],eax
    4a12:	01 01                	add    DWORD PTR [ecx],eax
    4a14:	01 01                	add    DWORD PTR [ecx],eax
    4a16:	01 01                	add    DWORD PTR [ecx],eax
    4a18:	01 01                	add    DWORD PTR [ecx],eax
    4a1a:	01 01                	add    DWORD PTR [ecx],eax
    4a1c:	01 01                	add    DWORD PTR [ecx],eax
    4a1e:	01 01                	add    DWORD PTR [ecx],eax
    4a20:	01 01                	add    DWORD PTR [ecx],eax
    4a22:	01 01                	add    DWORD PTR [ecx],eax
    4a24:	01 01                	add    DWORD PTR [ecx],eax
    4a26:	01 01                	add    DWORD PTR [ecx],eax
    4a28:	01 01                	add    DWORD PTR [ecx],eax
    4a2a:	01 01                	add    DWORD PTR [ecx],eax
    4a2c:	01 01                	add    DWORD PTR [ecx],eax
    4a2e:	01 01                	add    DWORD PTR [ecx],eax
    4a30:	01 01                	add    DWORD PTR [ecx],eax
    4a32:	01 01                	add    DWORD PTR [ecx],eax
    4a34:	01 01                	add    DWORD PTR [ecx],eax
    4a36:	01 01                	add    DWORD PTR [ecx],eax
    4a38:	01 01                	add    DWORD PTR [ecx],eax
    4a3a:	01 01                	add    DWORD PTR [ecx],eax
    4a3c:	01 01                	add    DWORD PTR [ecx],eax
    4a3e:	01 01                	add    DWORD PTR [ecx],eax
    4a40:	01 01                	add    DWORD PTR [ecx],eax
    4a42:	01 01                	add    DWORD PTR [ecx],eax
    4a44:	01 01                	add    DWORD PTR [ecx],eax
    4a46:	01 01                	add    DWORD PTR [ecx],eax
    4a48:	01 01                	add    DWORD PTR [ecx],eax
    4a4a:	01 01                	add    DWORD PTR [ecx],eax
    4a4c:	01 01                	add    DWORD PTR [ecx],eax
    4a4e:	01 01                	add    DWORD PTR [ecx],eax
    4a50:	01 01                	add    DWORD PTR [ecx],eax
    4a52:	01 01                	add    DWORD PTR [ecx],eax
    4a54:	01 01                	add    DWORD PTR [ecx],eax
    4a56:	01 01                	add    DWORD PTR [ecx],eax
    4a58:	01 01                	add    DWORD PTR [ecx],eax
    4a5a:	01 01                	add    DWORD PTR [ecx],eax
    4a5c:	01 01                	add    DWORD PTR [ecx],eax
    4a5e:	01 01                	add    DWORD PTR [ecx],eax
    4a60:	01 01                	add    DWORD PTR [ecx],eax
    4a62:	01 01                	add    DWORD PTR [ecx],eax
    4a64:	01 01                	add    DWORD PTR [ecx],eax
    4a66:	01 01                	add    DWORD PTR [ecx],eax
    4a68:	01 01                	add    DWORD PTR [ecx],eax
    4a6a:	01 01                	add    DWORD PTR [ecx],eax
    4a6c:	01 01                	add    DWORD PTR [ecx],eax
    4a6e:	01 01                	add    DWORD PTR [ecx],eax
    4a70:	01 01                	add    DWORD PTR [ecx],eax
    4a72:	01 01                	add    DWORD PTR [ecx],eax
    4a74:	01 01                	add    DWORD PTR [ecx],eax
    4a76:	01 01                	add    DWORD PTR [ecx],eax
    4a78:	01 01                	add    DWORD PTR [ecx],eax
    4a7a:	01 01                	add    DWORD PTR [ecx],eax
    4a7c:	01 01                	add    DWORD PTR [ecx],eax
    4a7e:	01 01                	add    DWORD PTR [ecx],eax
    4a80:	01 01                	add    DWORD PTR [ecx],eax
    4a82:	01 01                	add    DWORD PTR [ecx],eax
    4a84:	01 01                	add    DWORD PTR [ecx],eax
    4a86:	01 01                	add    DWORD PTR [ecx],eax
    4a88:	01 01                	add    DWORD PTR [ecx],eax
    4a8a:	01 01                	add    DWORD PTR [ecx],eax
    4a8c:	01 01                	add    DWORD PTR [ecx],eax
    4a8e:	01 01                	add    DWORD PTR [ecx],eax
    4a90:	01 01                	add    DWORD PTR [ecx],eax
    4a92:	01 01                	add    DWORD PTR [ecx],eax
    4a94:	01 01                	add    DWORD PTR [ecx],eax
    4a96:	01 01                	add    DWORD PTR [ecx],eax
    4a98:	01 01                	add    DWORD PTR [ecx],eax
    4a9a:	01 01                	add    DWORD PTR [ecx],eax
    4a9c:	01 01                	add    DWORD PTR [ecx],eax
    4a9e:	01 01                	add    DWORD PTR [ecx],eax
    4aa0:	01 01                	add    DWORD PTR [ecx],eax
    4aa2:	01 01                	add    DWORD PTR [ecx],eax
    4aa4:	01 01                	add    DWORD PTR [ecx],eax
    4aa6:	01 01                	add    DWORD PTR [ecx],eax
    4aa8:	01 01                	add    DWORD PTR [ecx],eax
    4aaa:	01 01                	add    DWORD PTR [ecx],eax
    4aac:	01 01                	add    DWORD PTR [ecx],eax
    4aae:	01 01                	add    DWORD PTR [ecx],eax
    4ab0:	01 01                	add    DWORD PTR [ecx],eax
    4ab2:	01 01                	add    DWORD PTR [ecx],eax
    4ab4:	01 01                	add    DWORD PTR [ecx],eax
    4ab6:	01 01                	add    DWORD PTR [ecx],eax
    4ab8:	01 01                	add    DWORD PTR [ecx],eax
    4aba:	01 01                	add    DWORD PTR [ecx],eax
    4abc:	01 01                	add    DWORD PTR [ecx],eax
    4abe:	01 01                	add    DWORD PTR [ecx],eax
    4ac0:	01 01                	add    DWORD PTR [ecx],eax
    4ac2:	01 01                	add    DWORD PTR [ecx],eax
    4ac4:	01 01                	add    DWORD PTR [ecx],eax
    4ac6:	01 01                	add    DWORD PTR [ecx],eax
    4ac8:	01 01                	add    DWORD PTR [ecx],eax
    4aca:	01 01                	add    DWORD PTR [ecx],eax
    4acc:	01 01                	add    DWORD PTR [ecx],eax
    4ace:	01 01                	add    DWORD PTR [ecx],eax
    4ad0:	01 01                	add    DWORD PTR [ecx],eax
    4ad2:	01 01                	add    DWORD PTR [ecx],eax
    4ad4:	01 01                	add    DWORD PTR [ecx],eax
    4ad6:	01 01                	add    DWORD PTR [ecx],eax
    4ad8:	01 01                	add    DWORD PTR [ecx],eax
    4ada:	01 01                	add    DWORD PTR [ecx],eax
    4adc:	01 01                	add    DWORD PTR [ecx],eax
    4ade:	01 01                	add    DWORD PTR [ecx],eax
    4ae0:	01 01                	add    DWORD PTR [ecx],eax
    4ae2:	01 01                	add    DWORD PTR [ecx],eax
    4ae4:	01 01                	add    DWORD PTR [ecx],eax
    4ae6:	01 01                	add    DWORD PTR [ecx],eax
    4ae8:	01 01                	add    DWORD PTR [ecx],eax
    4aea:	01 01                	add    DWORD PTR [ecx],eax
    4aec:	01 01                	add    DWORD PTR [ecx],eax
    4aee:	01 01                	add    DWORD PTR [ecx],eax
    4af0:	01 01                	add    DWORD PTR [ecx],eax
    4af2:	01 01                	add    DWORD PTR [ecx],eax
    4af4:	01 01                	add    DWORD PTR [ecx],eax
    4af6:	01 01                	add    DWORD PTR [ecx],eax
    4af8:	01 01                	add    DWORD PTR [ecx],eax
    4afa:	01 01                	add    DWORD PTR [ecx],eax
    4afc:	01 01                	add    DWORD PTR [ecx],eax
    4afe:	01 01                	add    DWORD PTR [ecx],eax
    4b00:	01 01                	add    DWORD PTR [ecx],eax
    4b02:	01 01                	add    DWORD PTR [ecx],eax
    4b04:	01 01                	add    DWORD PTR [ecx],eax
    4b06:	01 01                	add    DWORD PTR [ecx],eax
    4b08:	01 01                	add    DWORD PTR [ecx],eax
    4b0a:	01 01                	add    DWORD PTR [ecx],eax
    4b0c:	01 01                	add    DWORD PTR [ecx],eax
    4b0e:	01 01                	add    DWORD PTR [ecx],eax
    4b10:	01 01                	add    DWORD PTR [ecx],eax
    4b12:	01 01                	add    DWORD PTR [ecx],eax
    4b14:	01 01                	add    DWORD PTR [ecx],eax
    4b16:	01 01                	add    DWORD PTR [ecx],eax
    4b18:	01 01                	add    DWORD PTR [ecx],eax
    4b1a:	01 01                	add    DWORD PTR [ecx],eax
    4b1c:	01 01                	add    DWORD PTR [ecx],eax
    4b1e:	01 01                	add    DWORD PTR [ecx],eax
    4b20:	01 01                	add    DWORD PTR [ecx],eax
    4b22:	01 01                	add    DWORD PTR [ecx],eax
    4b24:	01 01                	add    DWORD PTR [ecx],eax
    4b26:	01 01                	add    DWORD PTR [ecx],eax
    4b28:	01 01                	add    DWORD PTR [ecx],eax
    4b2a:	01 01                	add    DWORD PTR [ecx],eax
    4b2c:	01 01                	add    DWORD PTR [ecx],eax
    4b2e:	01 01                	add    DWORD PTR [ecx],eax
    4b30:	01 01                	add    DWORD PTR [ecx],eax
    4b32:	01 01                	add    DWORD PTR [ecx],eax
    4b34:	01 01                	add    DWORD PTR [ecx],eax
    4b36:	01 01                	add    DWORD PTR [ecx],eax
    4b38:	01 01                	add    DWORD PTR [ecx],eax
    4b3a:	01 01                	add    DWORD PTR [ecx],eax
    4b3c:	01 01                	add    DWORD PTR [ecx],eax
    4b3e:	01 01                	add    DWORD PTR [ecx],eax
    4b40:	01 01                	add    DWORD PTR [ecx],eax
    4b42:	01 01                	add    DWORD PTR [ecx],eax
    4b44:	01 01                	add    DWORD PTR [ecx],eax
    4b46:	01 01                	add    DWORD PTR [ecx],eax
    4b48:	01 01                	add    DWORD PTR [ecx],eax
    4b4a:	01 01                	add    DWORD PTR [ecx],eax
    4b4c:	01 01                	add    DWORD PTR [ecx],eax
    4b4e:	01 01                	add    DWORD PTR [ecx],eax
    4b50:	01 01                	add    DWORD PTR [ecx],eax
    4b52:	01 01                	add    DWORD PTR [ecx],eax
    4b54:	01 01                	add    DWORD PTR [ecx],eax
    4b56:	01 01                	add    DWORD PTR [ecx],eax
    4b58:	01 01                	add    DWORD PTR [ecx],eax
    4b5a:	01 01                	add    DWORD PTR [ecx],eax
    4b5c:	01 01                	add    DWORD PTR [ecx],eax
    4b5e:	01 01                	add    DWORD PTR [ecx],eax
    4b60:	01 01                	add    DWORD PTR [ecx],eax
    4b62:	01 01                	add    DWORD PTR [ecx],eax
    4b64:	01 01                	add    DWORD PTR [ecx],eax
    4b66:	01 01                	add    DWORD PTR [ecx],eax
    4b68:	01 01                	add    DWORD PTR [ecx],eax
    4b6a:	01 01                	add    DWORD PTR [ecx],eax
    4b6c:	01 01                	add    DWORD PTR [ecx],eax
    4b6e:	01 01                	add    DWORD PTR [ecx],eax
    4b70:	01 01                	add    DWORD PTR [ecx],eax
    4b72:	01 01                	add    DWORD PTR [ecx],eax
    4b74:	01 01                	add    DWORD PTR [ecx],eax
    4b76:	01 01                	add    DWORD PTR [ecx],eax
    4b78:	01 01                	add    DWORD PTR [ecx],eax
    4b7a:	01 01                	add    DWORD PTR [ecx],eax
    4b7c:	01 01                	add    DWORD PTR [ecx],eax
    4b7e:	01 01                	add    DWORD PTR [ecx],eax
    4b80:	01 01                	add    DWORD PTR [ecx],eax
    4b82:	01 01                	add    DWORD PTR [ecx],eax
    4b84:	01 01                	add    DWORD PTR [ecx],eax
    4b86:	01 01                	add    DWORD PTR [ecx],eax
    4b88:	01 01                	add    DWORD PTR [ecx],eax
    4b8a:	01 01                	add    DWORD PTR [ecx],eax
    4b8c:	01 01                	add    DWORD PTR [ecx],eax
    4b8e:	01 01                	add    DWORD PTR [ecx],eax
    4b90:	01 01                	add    DWORD PTR [ecx],eax
    4b92:	01 01                	add    DWORD PTR [ecx],eax
    4b94:	01 01                	add    DWORD PTR [ecx],eax
    4b96:	01 01                	add    DWORD PTR [ecx],eax
    4b98:	01 01                	add    DWORD PTR [ecx],eax
    4b9a:	01 01                	add    DWORD PTR [ecx],eax
    4b9c:	01 01                	add    DWORD PTR [ecx],eax
    4b9e:	01 01                	add    DWORD PTR [ecx],eax
    4ba0:	01 01                	add    DWORD PTR [ecx],eax
    4ba2:	01 01                	add    DWORD PTR [ecx],eax
    4ba4:	01 01                	add    DWORD PTR [ecx],eax
    4ba6:	01 01                	add    DWORD PTR [ecx],eax
    4ba8:	01 01                	add    DWORD PTR [ecx],eax
    4baa:	01 01                	add    DWORD PTR [ecx],eax
    4bac:	01 01                	add    DWORD PTR [ecx],eax
    4bae:	01 01                	add    DWORD PTR [ecx],eax
    4bb0:	01 01                	add    DWORD PTR [ecx],eax
    4bb2:	01 01                	add    DWORD PTR [ecx],eax
    4bb4:	01 01                	add    DWORD PTR [ecx],eax
    4bb6:	01 01                	add    DWORD PTR [ecx],eax
    4bb8:	01 01                	add    DWORD PTR [ecx],eax
    4bba:	01 01                	add    DWORD PTR [ecx],eax
    4bbc:	01 01                	add    DWORD PTR [ecx],eax
    4bbe:	01 01                	add    DWORD PTR [ecx],eax
    4bc0:	01 01                	add    DWORD PTR [ecx],eax
    4bc2:	01 01                	add    DWORD PTR [ecx],eax
    4bc4:	01 01                	add    DWORD PTR [ecx],eax
    4bc6:	01 01                	add    DWORD PTR [ecx],eax
    4bc8:	01 01                	add    DWORD PTR [ecx],eax
    4bca:	01 01                	add    DWORD PTR [ecx],eax
    4bcc:	01 01                	add    DWORD PTR [ecx],eax
    4bce:	01 01                	add    DWORD PTR [ecx],eax
    4bd0:	01 01                	add    DWORD PTR [ecx],eax
    4bd2:	01 01                	add    DWORD PTR [ecx],eax
    4bd4:	01 01                	add    DWORD PTR [ecx],eax
    4bd6:	01 01                	add    DWORD PTR [ecx],eax
    4bd8:	01 01                	add    DWORD PTR [ecx],eax
    4bda:	01 01                	add    DWORD PTR [ecx],eax
    4bdc:	01 01                	add    DWORD PTR [ecx],eax
    4bde:	01 01                	add    DWORD PTR [ecx],eax
    4be0:	01 01                	add    DWORD PTR [ecx],eax
    4be2:	01 01                	add    DWORD PTR [ecx],eax
    4be4:	01 01                	add    DWORD PTR [ecx],eax
    4be6:	01 01                	add    DWORD PTR [ecx],eax
    4be8:	01 01                	add    DWORD PTR [ecx],eax
    4bea:	01 01                	add    DWORD PTR [ecx],eax
    4bec:	01 01                	add    DWORD PTR [ecx],eax
    4bee:	01 01                	add    DWORD PTR [ecx],eax
    4bf0:	01 01                	add    DWORD PTR [ecx],eax
    4bf2:	01 01                	add    DWORD PTR [ecx],eax
    4bf4:	01 01                	add    DWORD PTR [ecx],eax
    4bf6:	01 01                	add    DWORD PTR [ecx],eax
    4bf8:	01 01                	add    DWORD PTR [ecx],eax
    4bfa:	01 01                	add    DWORD PTR [ecx],eax
    4bfc:	01 01                	add    DWORD PTR [ecx],eax
    4bfe:	01 01                	add    DWORD PTR [ecx],eax
    4c00:	01 01                	add    DWORD PTR [ecx],eax
    4c02:	01 01                	add    DWORD PTR [ecx],eax
    4c04:	01 01                	add    DWORD PTR [ecx],eax
    4c06:	01 01                	add    DWORD PTR [ecx],eax
    4c08:	01 01                	add    DWORD PTR [ecx],eax
    4c0a:	01 01                	add    DWORD PTR [ecx],eax
    4c0c:	01 01                	add    DWORD PTR [ecx],eax
    4c0e:	01 01                	add    DWORD PTR [ecx],eax
    4c10:	01 01                	add    DWORD PTR [ecx],eax
    4c12:	01 01                	add    DWORD PTR [ecx],eax
    4c14:	01 01                	add    DWORD PTR [ecx],eax
    4c16:	01 01                	add    DWORD PTR [ecx],eax
    4c18:	01 01                	add    DWORD PTR [ecx],eax
    4c1a:	01 01                	add    DWORD PTR [ecx],eax
    4c1c:	01 01                	add    DWORD PTR [ecx],eax
    4c1e:	01 01                	add    DWORD PTR [ecx],eax
    4c20:	01 01                	add    DWORD PTR [ecx],eax
    4c22:	01 01                	add    DWORD PTR [ecx],eax
    4c24:	01 01                	add    DWORD PTR [ecx],eax
    4c26:	01 01                	add    DWORD PTR [ecx],eax
    4c28:	01 01                	add    DWORD PTR [ecx],eax
    4c2a:	01 01                	add    DWORD PTR [ecx],eax
    4c2c:	01 01                	add    DWORD PTR [ecx],eax
    4c2e:	01 01                	add    DWORD PTR [ecx],eax
    4c30:	01 01                	add    DWORD PTR [ecx],eax
    4c32:	01 01                	add    DWORD PTR [ecx],eax
    4c34:	01 01                	add    DWORD PTR [ecx],eax
    4c36:	01 01                	add    DWORD PTR [ecx],eax
    4c38:	01 01                	add    DWORD PTR [ecx],eax
    4c3a:	01 01                	add    DWORD PTR [ecx],eax
    4c3c:	01 01                	add    DWORD PTR [ecx],eax
    4c3e:	01 01                	add    DWORD PTR [ecx],eax
    4c40:	01 01                	add    DWORD PTR [ecx],eax
    4c42:	01 01                	add    DWORD PTR [ecx],eax
    4c44:	01 01                	add    DWORD PTR [ecx],eax
    4c46:	01 01                	add    DWORD PTR [ecx],eax
    4c48:	01 01                	add    DWORD PTR [ecx],eax
    4c4a:	01 01                	add    DWORD PTR [ecx],eax
    4c4c:	01 01                	add    DWORD PTR [ecx],eax
    4c4e:	01 01                	add    DWORD PTR [ecx],eax
    4c50:	01 01                	add    DWORD PTR [ecx],eax
    4c52:	01 01                	add    DWORD PTR [ecx],eax
    4c54:	01 01                	add    DWORD PTR [ecx],eax
    4c56:	01 01                	add    DWORD PTR [ecx],eax
    4c58:	01 01                	add    DWORD PTR [ecx],eax
    4c5a:	01 01                	add    DWORD PTR [ecx],eax
    4c5c:	01 01                	add    DWORD PTR [ecx],eax
    4c5e:	01 01                	add    DWORD PTR [ecx],eax
    4c60:	01 01                	add    DWORD PTR [ecx],eax
    4c62:	01 01                	add    DWORD PTR [ecx],eax
    4c64:	01 01                	add    DWORD PTR [ecx],eax
    4c66:	01 01                	add    DWORD PTR [ecx],eax
    4c68:	01 01                	add    DWORD PTR [ecx],eax
    4c6a:	01 01                	add    DWORD PTR [ecx],eax
    4c6c:	01 01                	add    DWORD PTR [ecx],eax
    4c6e:	01 01                	add    DWORD PTR [ecx],eax
    4c70:	01 01                	add    DWORD PTR [ecx],eax
    4c72:	01 01                	add    DWORD PTR [ecx],eax
    4c74:	01 01                	add    DWORD PTR [ecx],eax
    4c76:	01 01                	add    DWORD PTR [ecx],eax
    4c78:	01 01                	add    DWORD PTR [ecx],eax
    4c7a:	01 01                	add    DWORD PTR [ecx],eax
    4c7c:	01 01                	add    DWORD PTR [ecx],eax
    4c7e:	01 01                	add    DWORD PTR [ecx],eax
    4c80:	01 01                	add    DWORD PTR [ecx],eax
    4c82:	01 01                	add    DWORD PTR [ecx],eax
    4c84:	01 01                	add    DWORD PTR [ecx],eax
    4c86:	01 01                	add    DWORD PTR [ecx],eax
    4c88:	01 01                	add    DWORD PTR [ecx],eax
    4c8a:	01 01                	add    DWORD PTR [ecx],eax
    4c8c:	01 01                	add    DWORD PTR [ecx],eax
    4c8e:	01 01                	add    DWORD PTR [ecx],eax
    4c90:	01 01                	add    DWORD PTR [ecx],eax
    4c92:	01 01                	add    DWORD PTR [ecx],eax
    4c94:	01 01                	add    DWORD PTR [ecx],eax
    4c96:	01 01                	add    DWORD PTR [ecx],eax
    4c98:	01 01                	add    DWORD PTR [ecx],eax
    4c9a:	01 01                	add    DWORD PTR [ecx],eax
    4c9c:	01 01                	add    DWORD PTR [ecx],eax
    4c9e:	01 01                	add    DWORD PTR [ecx],eax
    4ca0:	01 01                	add    DWORD PTR [ecx],eax
    4ca2:	01 01                	add    DWORD PTR [ecx],eax
    4ca4:	01 01                	add    DWORD PTR [ecx],eax
    4ca6:	01 01                	add    DWORD PTR [ecx],eax
    4ca8:	01 01                	add    DWORD PTR [ecx],eax
    4caa:	01 01                	add    DWORD PTR [ecx],eax
    4cac:	01 01                	add    DWORD PTR [ecx],eax
    4cae:	01 01                	add    DWORD PTR [ecx],eax
    4cb0:	01 01                	add    DWORD PTR [ecx],eax
    4cb2:	01 01                	add    DWORD PTR [ecx],eax
    4cb4:	01 01                	add    DWORD PTR [ecx],eax
    4cb6:	01 01                	add    DWORD PTR [ecx],eax
    4cb8:	01 01                	add    DWORD PTR [ecx],eax
    4cba:	01 01                	add    DWORD PTR [ecx],eax
    4cbc:	01 01                	add    DWORD PTR [ecx],eax
    4cbe:	01 01                	add    DWORD PTR [ecx],eax
    4cc0:	01 01                	add    DWORD PTR [ecx],eax
    4cc2:	01 01                	add    DWORD PTR [ecx],eax
    4cc4:	01 01                	add    DWORD PTR [ecx],eax
    4cc6:	01 01                	add    DWORD PTR [ecx],eax
    4cc8:	01 01                	add    DWORD PTR [ecx],eax
    4cca:	01 01                	add    DWORD PTR [ecx],eax
    4ccc:	01 01                	add    DWORD PTR [ecx],eax
    4cce:	01 01                	add    DWORD PTR [ecx],eax
    4cd0:	01 01                	add    DWORD PTR [ecx],eax
    4cd2:	01 01                	add    DWORD PTR [ecx],eax
    4cd4:	01 01                	add    DWORD PTR [ecx],eax
    4cd6:	01 01                	add    DWORD PTR [ecx],eax
    4cd8:	01 01                	add    DWORD PTR [ecx],eax
    4cda:	01 01                	add    DWORD PTR [ecx],eax
    4cdc:	01 01                	add    DWORD PTR [ecx],eax
    4cde:	01 01                	add    DWORD PTR [ecx],eax
    4ce0:	01 01                	add    DWORD PTR [ecx],eax
    4ce2:	01 01                	add    DWORD PTR [ecx],eax
    4ce4:	01 01                	add    DWORD PTR [ecx],eax
    4ce6:	01 01                	add    DWORD PTR [ecx],eax
    4ce8:	01 01                	add    DWORD PTR [ecx],eax
    4cea:	01 01                	add    DWORD PTR [ecx],eax
    4cec:	01 01                	add    DWORD PTR [ecx],eax
    4cee:	01 01                	add    DWORD PTR [ecx],eax
    4cf0:	01 01                	add    DWORD PTR [ecx],eax
    4cf2:	01 01                	add    DWORD PTR [ecx],eax
    4cf4:	01 01                	add    DWORD PTR [ecx],eax
    4cf6:	01 01                	add    DWORD PTR [ecx],eax
    4cf8:	01 01                	add    DWORD PTR [ecx],eax
    4cfa:	01 01                	add    DWORD PTR [ecx],eax
    4cfc:	01 01                	add    DWORD PTR [ecx],eax
    4cfe:	01 01                	add    DWORD PTR [ecx],eax
    4d00:	01 01                	add    DWORD PTR [ecx],eax
    4d02:	01 01                	add    DWORD PTR [ecx],eax
    4d04:	01 01                	add    DWORD PTR [ecx],eax
    4d06:	01 01                	add    DWORD PTR [ecx],eax
    4d08:	01 01                	add    DWORD PTR [ecx],eax
    4d0a:	01 01                	add    DWORD PTR [ecx],eax
    4d0c:	01 01                	add    DWORD PTR [ecx],eax
    4d0e:	01 01                	add    DWORD PTR [ecx],eax
    4d10:	01 01                	add    DWORD PTR [ecx],eax
    4d12:	01 01                	add    DWORD PTR [ecx],eax
    4d14:	01 01                	add    DWORD PTR [ecx],eax
    4d16:	01 01                	add    DWORD PTR [ecx],eax
    4d18:	01 01                	add    DWORD PTR [ecx],eax
    4d1a:	01 01                	add    DWORD PTR [ecx],eax
    4d1c:	01 01                	add    DWORD PTR [ecx],eax
    4d1e:	01 01                	add    DWORD PTR [ecx],eax
    4d20:	01 01                	add    DWORD PTR [ecx],eax
    4d22:	01 01                	add    DWORD PTR [ecx],eax
    4d24:	01 01                	add    DWORD PTR [ecx],eax
    4d26:	01 01                	add    DWORD PTR [ecx],eax
    4d28:	01 01                	add    DWORD PTR [ecx],eax
    4d2a:	01 01                	add    DWORD PTR [ecx],eax
    4d2c:	01 01                	add    DWORD PTR [ecx],eax
    4d2e:	01 01                	add    DWORD PTR [ecx],eax
    4d30:	01 01                	add    DWORD PTR [ecx],eax
    4d32:	01 01                	add    DWORD PTR [ecx],eax
    4d34:	01 01                	add    DWORD PTR [ecx],eax
    4d36:	01 01                	add    DWORD PTR [ecx],eax
    4d38:	01 01                	add    DWORD PTR [ecx],eax
    4d3a:	01 01                	add    DWORD PTR [ecx],eax
    4d3c:	01 01                	add    DWORD PTR [ecx],eax
    4d3e:	01 01                	add    DWORD PTR [ecx],eax
    4d40:	01 01                	add    DWORD PTR [ecx],eax
    4d42:	01 01                	add    DWORD PTR [ecx],eax
    4d44:	01 01                	add    DWORD PTR [ecx],eax
    4d46:	01 01                	add    DWORD PTR [ecx],eax
    4d48:	01 01                	add    DWORD PTR [ecx],eax
    4d4a:	01 01                	add    DWORD PTR [ecx],eax
    4d4c:	01 01                	add    DWORD PTR [ecx],eax
    4d4e:	01 01                	add    DWORD PTR [ecx],eax
    4d50:	01 01                	add    DWORD PTR [ecx],eax
    4d52:	01 01                	add    DWORD PTR [ecx],eax
    4d54:	01 01                	add    DWORD PTR [ecx],eax
    4d56:	01 01                	add    DWORD PTR [ecx],eax
    4d58:	01 01                	add    DWORD PTR [ecx],eax
    4d5a:	01 01                	add    DWORD PTR [ecx],eax
    4d5c:	01 01                	add    DWORD PTR [ecx],eax
    4d5e:	01 01                	add    DWORD PTR [ecx],eax
    4d60:	01 01                	add    DWORD PTR [ecx],eax
    4d62:	01 01                	add    DWORD PTR [ecx],eax
    4d64:	01 01                	add    DWORD PTR [ecx],eax
    4d66:	01 01                	add    DWORD PTR [ecx],eax
    4d68:	01 01                	add    DWORD PTR [ecx],eax
    4d6a:	01 01                	add    DWORD PTR [ecx],eax
    4d6c:	01 01                	add    DWORD PTR [ecx],eax
    4d6e:	01 01                	add    DWORD PTR [ecx],eax
    4d70:	01 01                	add    DWORD PTR [ecx],eax
    4d72:	01 01                	add    DWORD PTR [ecx],eax
    4d74:	01 01                	add    DWORD PTR [ecx],eax
    4d76:	01 01                	add    DWORD PTR [ecx],eax
    4d78:	01 01                	add    DWORD PTR [ecx],eax
    4d7a:	01 01                	add    DWORD PTR [ecx],eax
    4d7c:	01 01                	add    DWORD PTR [ecx],eax
    4d7e:	01 01                	add    DWORD PTR [ecx],eax
    4d80:	01 01                	add    DWORD PTR [ecx],eax
    4d82:	01 01                	add    DWORD PTR [ecx],eax
    4d84:	01 01                	add    DWORD PTR [ecx],eax
    4d86:	01 01                	add    DWORD PTR [ecx],eax
    4d88:	01 01                	add    DWORD PTR [ecx],eax
    4d8a:	01 01                	add    DWORD PTR [ecx],eax
    4d8c:	01 01                	add    DWORD PTR [ecx],eax
    4d8e:	01 01                	add    DWORD PTR [ecx],eax
    4d90:	01 01                	add    DWORD PTR [ecx],eax
    4d92:	01 01                	add    DWORD PTR [ecx],eax
    4d94:	01 01                	add    DWORD PTR [ecx],eax
    4d96:	01 01                	add    DWORD PTR [ecx],eax
    4d98:	01 01                	add    DWORD PTR [ecx],eax
    4d9a:	01 01                	add    DWORD PTR [ecx],eax
    4d9c:	01 01                	add    DWORD PTR [ecx],eax
    4d9e:	01 01                	add    DWORD PTR [ecx],eax
    4da0:	01 01                	add    DWORD PTR [ecx],eax
    4da2:	01 01                	add    DWORD PTR [ecx],eax
    4da4:	01 01                	add    DWORD PTR [ecx],eax
    4da6:	01 01                	add    DWORD PTR [ecx],eax
    4da8:	01 01                	add    DWORD PTR [ecx],eax
    4daa:	01 01                	add    DWORD PTR [ecx],eax
    4dac:	01 01                	add    DWORD PTR [ecx],eax
    4dae:	01 01                	add    DWORD PTR [ecx],eax
    4db0:	01 01                	add    DWORD PTR [ecx],eax
    4db2:	01 01                	add    DWORD PTR [ecx],eax
    4db4:	01 01                	add    DWORD PTR [ecx],eax
    4db6:	01 01                	add    DWORD PTR [ecx],eax
    4db8:	01 01                	add    DWORD PTR [ecx],eax
    4dba:	01 01                	add    DWORD PTR [ecx],eax
    4dbc:	01 01                	add    DWORD PTR [ecx],eax
    4dbe:	01 01                	add    DWORD PTR [ecx],eax
    4dc0:	01 01                	add    DWORD PTR [ecx],eax
    4dc2:	01 01                	add    DWORD PTR [ecx],eax
    4dc4:	01 01                	add    DWORD PTR [ecx],eax
    4dc6:	01 01                	add    DWORD PTR [ecx],eax
    4dc8:	01 01                	add    DWORD PTR [ecx],eax
    4dca:	01 01                	add    DWORD PTR [ecx],eax
    4dcc:	01 01                	add    DWORD PTR [ecx],eax
    4dce:	01 01                	add    DWORD PTR [ecx],eax
    4dd0:	01 01                	add    DWORD PTR [ecx],eax
    4dd2:	01 01                	add    DWORD PTR [ecx],eax
    4dd4:	01 01                	add    DWORD PTR [ecx],eax
    4dd6:	01 01                	add    DWORD PTR [ecx],eax
    4dd8:	01 01                	add    DWORD PTR [ecx],eax
    4dda:	01 01                	add    DWORD PTR [ecx],eax
    4ddc:	01 01                	add    DWORD PTR [ecx],eax
    4dde:	01 01                	add    DWORD PTR [ecx],eax
    4de0:	01 01                	add    DWORD PTR [ecx],eax
    4de2:	01 01                	add    DWORD PTR [ecx],eax
    4de4:	01 01                	add    DWORD PTR [ecx],eax
    4de6:	01 01                	add    DWORD PTR [ecx],eax
    4de8:	01 01                	add    DWORD PTR [ecx],eax
    4dea:	01 01                	add    DWORD PTR [ecx],eax
    4dec:	01 01                	add    DWORD PTR [ecx],eax
    4dee:	01 01                	add    DWORD PTR [ecx],eax
    4df0:	01 01                	add    DWORD PTR [ecx],eax
    4df2:	01 01                	add    DWORD PTR [ecx],eax
    4df4:	01 01                	add    DWORD PTR [ecx],eax
    4df6:	01 01                	add    DWORD PTR [ecx],eax
    4df8:	01 01                	add    DWORD PTR [ecx],eax
    4dfa:	01 01                	add    DWORD PTR [ecx],eax
    4dfc:	01 01                	add    DWORD PTR [ecx],eax
    4dfe:	01 00                	add    DWORD PTR [eax],eax
    4e00:	00 00                	add    BYTE PTR [eax],al
    4e02:	00 00                	add    BYTE PTR [eax],al
    4e04:	00 66 90             	add    BYTE PTR [esi-0x70],ah
    4e07:	90                   	nop
    4e08:	4c                   	dec    esp
    4e09:	6f                   	outs   dx,DWORD PTR ds:[esi]
    4e0a:	61                   	popa
    4e0b:	64 69 6e 67 20 6b 65 	imul   ebp,DWORD PTR fs:[esi+0x67],0x72656b20
    4e12:	72 
    4e13:	6e                   	outs   dx,BYTE PTR ds:[esi]
    4e14:	65 6c                	gs ins BYTE PTR es:[edi],dx
    4e16:	20 73 65             	and    BYTE PTR [ebx+0x65],dh
    4e19:	63 74 6f 72          	arpl   WORD PTR [edi+ebp*2+0x72],esi
    4e1d:	73 20                	jae    0x4e3f
    4e1f:	74 6f                	je     0x4e90
    4e21:	20 70 68             	and    BYTE PTR [eax+0x68],dh
    4e24:	79 73                	jns    0x4e99
    4e26:	69 63 61 6c 20 61 64 	imul   esp,DWORD PTR [ebx+0x61],0x6461206c
    4e2d:	64 72 65             	fs jb  0x4e95
    4e30:	73 73                	jae    0x4ea5
    4e32:	20 00                	and    BYTE PTR [eax],al
    4e34:	2e 2e 2e 00 20       	cs cs add BYTE PTR cs:[eax],ah
    4e39:	20 20                	and    BYTE PTR [eax],ah
    4e3b:	20 6c 6f 61          	and    BYTE PTR [edi+ebp*2+0x61],ch
    4e3f:	64 65 64 20 00       	fs gs and BYTE PTR fs:[eax],al
    4e44:	20 62 79             	and    BYTE PTR [edx+0x79],ah
    4e47:	74 65                	je     0x4eae
    4e49:	73 20                	jae    0x4e6b
    4e4b:	66 72 6f             	data16 jb 0x4ebd
    4e4e:	6d                   	ins    DWORD PTR es:[edi],dx
    4e4f:	20 73 65             	and    BYTE PTR [ebx+0x65],dh
    4e52:	63 74 6f 72          	arpl   WORD PTR [edi+ebp*2+0x72],esi
    4e56:	20 00                	and    BYTE PTR [eax],al
    4e58:	45                   	inc    ebp
    4e59:	72 72                	jb     0x4ecd
    4e5b:	6f                   	outs   dx,DWORD PTR ds:[esi]
    4e5c:	72 3a                	jb     0x4e98
    4e5e:	20 00                	and    BYTE PTR [eax],al
    4e60:	53                   	push   ebx
    4e61:	75 63                	jne    0x4ec6
    4e63:	63 65 73             	arpl   WORD PTR [ebp+0x73],esp
    4e66:	73 3a                	jae    0x4ea2
    4e68:	20 00                	and    BYTE PTR [eax],al
    4e6a:	49                   	dec    ecx
    4e6b:	6e                   	outs   dx,BYTE PTR ds:[esi]
    4e6c:	66 6f                	outs   dx,WORD PTR ds:[esi]
    4e6e:	3a 20                	cmp    ah,BYTE PTR [eax]
    4e70:	00 66 90             	add    BYTE PTR [esi-0x70],ah
    4e73:	90                   	nop
    4e74:	53                   	push   ebx
    4e75:	65 61                	gs popa
    4e77:	72 63                	jb     0x4edc
    4e79:	68 69 6e 67 20       	push   0x20676e69
    4e7e:	66 6f                	outs   dx,WORD PTR ds:[esi]
    4e80:	72 20                	jb     0x4ea2
    4e82:	61                   	popa
    4e83:	76 61                	jbe    0x4ee6
    4e85:	69 6c 61 62 6c 65 20 	imul   ebp,DWORD PTR [ecx+eiz*2+0x62],0x6d20656c
    4e8c:	6d 
    4e8d:	65 6d                	gs ins DWORD PTR es:[edi],dx
    4e8f:	6f                   	outs   dx,DWORD PTR ds:[esi]
    4e90:	72 79                	jb     0x4f0b
    4e92:	20 70 61             	and    BYTE PTR [eax+0x61],dh
    4e95:	67 65 73 2e          	addr16 gs jae 0x4ec7
    4e99:	2e 2e 00 20          	cs add BYTE PTR cs:[eax],ah
    4e9d:	20 20                	and    BYTE PTR [eax],ah
    4e9f:	20 00                	and    BYTE PTR [eax],al
    4ea1:	20 2d 3e 20 00 00    	and    BYTE PTR ds:0x203e,ch
    4ea7:	00 43 61             	add    BYTE PTR [ebx+0x61],al
    4eaa:	6e                   	outs   dx,BYTE PTR ds:[esi]
    4eab:	6e                   	outs   dx,BYTE PTR ds:[esi]
    4eac:	6f                   	outs   dx,DWORD PTR ds:[esi]
    4ead:	74 20                	je     0x4ecf
    4eaf:	65 6e                	outs   dx,BYTE PTR gs:[esi]
    4eb1:	73 75                	jae    0x4f28
    4eb3:	72 65                	jb     0x4f1a
    4eb5:	20 65 6e             	and    BYTE PTR [ebp+0x6e],ah
    4eb8:	6f                   	outs   dx,DWORD PTR ds:[esi]
    4eb9:	75 67                	jne    0x4f22
    4ebb:	68 74 20 6d 61       	push   0x616d2074
    4ec0:	70 70                	jo     0x4f32
    4ec2:	69 6e 67 20 66 6f 72 	imul   ebp,DWORD PTR [esi+0x67],0x726f6620
    4ec9:	20 72 65             	and    BYTE PTR [edx+0x65],dh
    4ecc:	73 65                	jae    0x4f33
    4ece:	72 76                	jb     0x4f46
    4ed0:	65 64 20 6d 65       	gs and BYTE PTR fs:[ebp+0x65],ch
    4ed5:	6d                   	ins    DWORD PTR es:[edi],dx
    4ed6:	6f                   	outs   dx,DWORD PTR ds:[esi]
    4ed7:	72 79                	jb     0x4f52
    4ed9:	21 00                	and    DWORD PTR [eax],eax
    4edb:	00 4f 6e             	add    BYTE PTR [edi+0x6e],cl
    4ede:	65 20 6d 65          	and    BYTE PTR gs:[ebp+0x65],ch
    4ee2:	6d                   	ins    DWORD PTR es:[edi],dx
    4ee3:	6f                   	outs   dx,DWORD PTR ds:[esi]
    4ee4:	72 79                	jb     0x4f5f
    4ee6:	20 73 65             	and    BYTE PTR [ebx+0x65],dh
    4ee9:	67 6d                	ins    DWORD PTR es:[di],dx
    4eeb:	65 6e                	outs   dx,BYTE PTR gs:[esi]
    4eed:	74 20                	je     0x4f0f
    4eef:	72 65                	jb     0x4f56
    4ef1:	73 65                	jae    0x4f58
    4ef3:	72 76                	jb     0x4f6b
    4ef5:	65 64 20 62 79       	gs and BYTE PTR fs:[edx+0x79],ah
    4efa:	20 6d 75             	and    BYTE PTR [ebp+0x75],ch
    4efd:	6c                   	ins    BYTE PTR es:[edi],dx
    4efe:	74 69                	je     0x4f69
    4f00:	70 6c                	jo     0x4f6e
    4f02:	65 20 70 61          	and    BYTE PTR gs:[eax+0x61],dh
    4f06:	67 65 73 21          	addr16 gs jae 0x4f2b
    4f0a:	00 41 76             	add    BYTE PTR [ecx+0x76],al
    4f0d:	61                   	popa
    4f0e:	69 6c 61 62 6c 65 3a 	imul   ebp,DWORD PTR [ecx+eiz*2+0x62],0x203a656c
    4f15:	20 
    4f16:	00 52 65             	add    BYTE PTR [edx+0x65],dl
    4f19:	73 65                	jae    0x4f80
    4f1b:	72 76                	jb     0x4f93
    4f1d:	65 64 3a 20          	gs cmp ah,BYTE PTR fs:[eax]
    4f21:	00 41 43             	add    BYTE PTR [ecx+0x43],al
    4f24:	50                   	push   eax
    4f25:	49                   	dec    ecx
    4f26:	5f                   	pop    edi
    4f27:	74 65                	je     0x4f8e
    4f29:	6d                   	ins    DWORD PTR es:[edi],dx
    4f2a:	70 3a                	jo     0x4f66
    4f2c:	20 00                	and    BYTE PTR [eax],al
    4f2e:	41                   	inc    ecx
    4f2f:	43                   	inc    ebx
    4f30:	50                   	push   eax
    4f31:	49                   	dec    ecx
    4f32:	5f                   	pop    edi
    4f33:	4e                   	dec    esi
    4f34:	56                   	push   esi
    4f35:	53                   	push   ebx
    4f36:	3a 20                	cmp    ah,BYTE PTR [eax]
    4f38:	00 55 6e             	add    BYTE PTR [ebp+0x6e],dl
    4f3b:	75 73                	jne    0x4fb0
    4f3d:	61                   	popa
    4f3e:	62 65 6c             	bound  esp,QWORD PTR [ebp+0x6c]
    4f41:	65 3a 20             	cmp    ah,BYTE PTR gs:[eax]
    4f44:	00 55 6e             	add    BYTE PTR [ebp+0x6e],dl
    4f47:	6b 6e 6f 77          	imul   ebp,DWORD PTR [esi+0x6f],0x77
    4f4b:	6e                   	outs   dx,BYTE PTR ds:[esi]
    4f4c:	3a 20                	cmp    ah,BYTE PTR [eax]
    4f4e:	00 00                	add    BYTE PTR [eax],al
    4f50:	1b 9c 00 00 f8 9b 00 	sbb    ebx,DWORD PTR [eax+eax*1+0x9bf800]
    4f57:	00 ff                	add    bh,bh
    4f59:	9b                   	fwait
    4f5a:	00 00                	add    BYTE PTR [eax],al
    4f5c:	06                   	push   es
    4f5d:	9c                   	pushf
    4f5e:	00 00                	add    BYTE PTR [eax],al
    4f60:	0d 9c 00 00 14       	or     eax,0x1400009c
    4f65:	9c                   	pushf
    4f66:	00 00                	add    BYTE PTR [eax],al
    4f68:	43                   	inc    ebx
    4f69:	61                   	popa
    4f6a:	6e                   	outs   dx,BYTE PTR ds:[esi]
    4f6b:	6e                   	outs   dx,BYTE PTR ds:[esi]
    4f6c:	6f                   	outs   dx,DWORD PTR ds:[esi]
    4f6d:	74 20                	je     0x4f8f
    4f6f:	66 69 78 20 6b 65    	imul   di,WORD PTR [eax+0x20],0x656b
    4f75:	72 6e                	jb     0x4fe5
    4f77:	65 6c                	gs ins BYTE PTR es:[edi],dx
    4f79:	20 61 64             	and    BYTE PTR [ecx+0x64],ah
    4f7c:	64 72 65             	fs jb  0x4fe4
    4f7f:	73 73                	jae    0x4ff4
    4f81:	2c 20                	sub    al,0x20
    4f83:	6e                   	outs   dx,BYTE PTR ds:[esi]
    4f84:	6f                   	outs   dx,DWORD PTR ds:[esi]
    4f85:	20 61 6e             	and    BYTE PTR [ecx+0x6e],ah
    4f88:	61                   	popa
    4f89:	6c                   	ins    BYTE PTR es:[edi],dx
    4f8a:	79 7a                	jns    0x5006
    4f8c:	65 64 20 72 61       	gs and BYTE PTR fs:[edx+0x61],dh
    4f91:	6e                   	outs   dx,BYTE PTR ds:[esi]
    4f92:	67 65 20 66 6f       	and    BYTE PTR gs:[bp+0x6f],ah
    4f97:	75 6e                	jne    0x5007
    4f99:	64 21 00             	and    DWORD PTR fs:[eax],eax
    4f9c:	43                   	inc    ebx
    4f9d:	6c                   	ins    BYTE PTR es:[edi],dx
    4f9e:	65 61                	gs popa
    4fa0:	72 69                	jb     0x500b
    4fa2:	6e                   	outs   dx,BYTE PTR ds:[esi]
    4fa3:	67 20 70 61          	and    BYTE PTR [bx+si+0x61],dh
    4fa7:	67 69 6e 67 20 74 61 	imul   ebp,DWORD PTR [bp+0x67],0x62617420
    4fae:	62 
    4faf:	6c                   	ins    BYTE PTR es:[edi],dx
    4fb0:	65 73 2e             	gs jae 0x4fe1
    4fb3:	2e 2e 00 00          	cs add BYTE PTR cs:[eax],al
    4fb7:	00 49 6e             	add    BYTE PTR [ecx+0x6e],cl
    4fba:	69 74 69 61 6c 69 7a 	imul   esi,DWORD PTR [ecx+ebp*2+0x61],0x697a696c
    4fc1:	69 
    4fc2:	6e                   	outs   dx,BYTE PTR ds:[esi]
    4fc3:	67 20 70 61          	and    BYTE PTR [bx+si+0x61],dh
    4fc7:	67 69 6e 67 20 74 61 	imul   ebp,DWORD PTR [bp+0x67],0x62617420
    4fce:	62 
    4fcf:	6c                   	ins    BYTE PTR es:[edi],dx
    4fd0:	65 73 20             	gs jae 0x4ff3
    4fd3:	6d                   	ins    DWORD PTR es:[edi],dx
    4fd4:	61                   	popa
    4fd5:	70 70                	jo     0x5047
    4fd7:	69 6e 67 73 2e 2e 2e 	imul   ebp,DWORD PTR [esi+0x67],0x2e2e2e73
    4fde:	00 20                	add    BYTE PTR [eax],ah
    4fe0:	20 5b 6c             	and    BYTE PTR [ebx+0x6c],bl
    4fe3:	6f                   	outs   dx,DWORD PTR ds:[esi]
    4fe4:	77 5d                	ja     0x5043
    4fe6:	00 20                	add    BYTE PTR [eax],ah
    4fe8:	20 5b 72             	and    BYTE PTR [ebx+0x72],bl
    4feb:	65 73 65             	gs jae 0x5053
    4fee:	72 76                	jb     0x5066
    4ff0:	65 64 20 00          	gs and BYTE PTR fs:[eax],al
    4ff4:	5d                   	pop    ebp
    4ff5:	00 20                	add    BYTE PTR [eax],ah
    4ff7:	20 5b 73             	and    BYTE PTR [ebx+0x73],bl
    4ffa:	6b 69 70 20          	imul   ebp,DWORD PTR [ecx+0x70],0x20
    4ffe:	28 74 6f 20          	sub    BYTE PTR [edi+ebp*2+0x20],dh
    5002:	73 6d                	jae    0x5071
    5004:	61                   	popa
    5005:	6c                   	ins    BYTE PTR es:[edi],dx
    5006:	6c                   	ins    BYTE PTR es:[edi],dx
    5007:	29 5d 00             	sub    DWORD PTR [ebp+0x0],ebx
    500a:	00 00                	add    BYTE PTR [eax],al
    500c:	20 20                	and    BYTE PTR [eax],ah
    500e:	5b                   	pop    ebx
    500f:	73 6b                	jae    0x507c
    5011:	69 70 20 28 6b 65 72 	imul   esi,DWORD PTR [eax+0x20],0x72656b28
    5018:	6e                   	outs   dx,BYTE PTR ds:[esi]
    5019:	65 6c                	gs ins BYTE PTR es:[edi],dx
    501b:	20 61 6c             	and    BYTE PTR [ecx+0x6c],ah
    501e:	6c                   	ins    BYTE PTR es:[edi],dx
    501f:	72 65                	jb     0x5086
    5021:	61                   	popa
    5022:	64 79 20             	fs jns 0x5045
    5025:	6d                   	ins    DWORD PTR es:[edi],dx
    5026:	61                   	popa
    5027:	70 70                	jo     0x5099
    5029:	65 64 29 5d 00       	gs sub DWORD PTR fs:[ebp+0x0],ebx
    502e:	20 20                	and    BYTE PTR [eax],ah
    5030:	5b                   	pop    ebx
    5031:	6b 65 72 6e          	imul   esp,DWORD PTR [ebp+0x72],0x6e
    5035:	65 6c                	gs ins BYTE PTR es:[edi],dx
    5037:	20 00                	and    BYTE PTR [eax],al
    5039:	43                   	inc    ebx
    503a:	72 65                	jb     0x50a1
    503c:	61                   	popa
    503d:	74 69                	je     0x50a8
    503f:	6e                   	outs   dx,BYTE PTR ds:[esi]
    5040:	67 20 61 6c          	and    BYTE PTR [bx+di+0x6c],ah
    5044:	6c                   	ins    BYTE PTR es:[edi],dx
    5045:	6f                   	outs   dx,DWORD PTR ds:[esi]
    5046:	63 61 74             	arpl   WORD PTR [ecx+0x74],esp
    5049:	6f                   	outs   dx,DWORD PTR ds:[esi]
    504a:	72 2e                	jb     0x507a
    504c:	2e 2e 00 46 61       	cs add BYTE PTR cs:[esi+0x61],al
    5051:	69 6c 65 64 20 74 6f 	imul   ebp,DWORD PTR [ebp+eiz*2+0x64],0x206f7420
    5058:	20 
    5059:	63 72 65             	arpl   WORD PTR [edx+0x65],esi
    505c:	61                   	popa
    505d:	74 65                	je     0x50c4
    505f:	20 61 6c             	and    BYTE PTR [ecx+0x6c],ah
    5062:	6c                   	ins    BYTE PTR es:[edi],dx
    5063:	6f                   	outs   dx,DWORD PTR ds:[esi]
    5064:	63 61 74             	arpl   WORD PTR [ecx+0x74],esp
    5067:	6f                   	outs   dx,DWORD PTR ds:[esi]
    5068:	72 21                	jb     0x508b
    506a:	00 53 65             	add    BYTE PTR [ebx+0x65],dl
    506d:	74 74                	je     0x50e3
    506f:	69 6e 67 20 73 68 61 	imul   ebp,DWORD PTR [esi+0x67],0x61687320
    5076:	72 65                	jb     0x50dd
    5078:	64 20 61 6c          	and    BYTE PTR fs:[ecx+0x6c],ah
    507c:	6c                   	ins    BYTE PTR es:[edi],dx
    507d:	6f                   	outs   dx,DWORD PTR ds:[esi]
    507e:	63 61 74             	arpl   WORD PTR [ecx+0x74],esp
    5081:	6f                   	outs   dx,DWORD PTR ds:[esi]
    5082:	72 2e                	jb     0x50b2
    5084:	2e 2e 00 0d 0a 00 00 	cs add BYTE PTR cs:0xa,cl
    508b:	00 
    508c:	0f 00 00             	sldt   WORD PTR [eax]
    508f:	00 01                	add    BYTE PTR [ecx],al
    5091:	00 00                	add    BYTE PTR [eax],al
    5093:	00 00                	add    BYTE PTR [eax],al
    5095:	00 01                	add    BYTE PTR [ecx],al
    5097:	00                   	.byte 0
    5098:	87 d0                	xchg   eax,edx
	...
